---
triple:          'arm64-apple-darwin'
binary-path:     "/Users/a1111/Documents/算法分析与设计/homework7/7_4"
relocations:
  - { offsetInCU: 0x3F, offset: 0x3F, size: 0x8, addend: 0x0, symName: _n, symObjAddr: 0x6C130, symBinAddr: 0x100014008, symSize: 0x0 }
  - { offsetInCU: 0x5B, offset: 0x5B, size: 0x8, addend: 0x0, symName: _m, symObjAddr: 0x6C134, symBinAddr: 0x10001400C, symSize: 0x0 }
  - { offsetInCU: 0x70, offset: 0x70, size: 0x8, addend: 0x0, symName: _gas_price, symObjAddr: 0x6C138, symBinAddr: 0x100014010, symSize: 0x0 }
  - { offsetInCU: 0x9146, offset: 0x9146, size: 0x8, addend: 0x0, symName: __ZNSt3__17advanceB8ue170006INS_11__wrap_iterIPiEEllvEEvRT_T0_, symObjAddr: 0x4144, symBinAddr: 0x100004E30, symSize: 0x38 }
  - { offsetInCU: 0x9E09, offset: 0x9E09, size: 0x8, addend: 0x0, symName: __ZNSt3__17advanceB8ue170006IPillvEEvRT_T0_, symObjAddr: 0x9A18, symBinAddr: 0x10000A704, symSize: 0x38 }
  - { offsetInCU: 0xA3A9, offset: 0xA3A9, size: 0x8, addend: 0x0, symName: __ZNSt3__114__copy_alignedB8ue170006INS_6vectorIbNS_9allocatorIbEEEELb1EEENS_14__bit_iteratorIT_Lb0EXLi0EEEENS5_IS6_XT0_EXLi0EEEES8_S7_, symObjAddr: 0xCB7C, symBinAddr: 0x10000D868, symSize: 0x268 }
  - { offsetInCU: 0xA4D5, offset: 0xA4D5, size: 0x8, addend: 0x0, symName: __ZNSt3__16copy_nB8ue170006IPKmmPmEENS_9enable_ifIXsr37__has_random_access_iterator_categoryIT_EE5valueET1_E4typeES5_T0_S6_, symObjAddr: 0xD378, symBinAddr: 0x10000E064, symSize: 0x44 }
  - { offsetInCU: 0xA57C, offset: 0xA57C, size: 0x8, addend: 0x0, symName: __ZNSt3__116__copy_unalignedB8ue170006INS_6vectorIbNS_9allocatorIbEEEELb1EEENS_14__bit_iteratorIT_Lb0EXLi0EEEENS5_IS6_XT0_EXLi0EEEES8_S7_, symObjAddr: 0xCDE4, symBinAddr: 0x10000DAD0, symSize: 0x520 }
  - { offsetInCU: 0xA6FC, offset: 0xA6FC, size: 0x8, addend: 0x0, symName: __ZNSt3__113__fill_n_trueB8ue170006INS_6vectorIbNS_9allocatorIbEEEEEEvNS_14__bit_iteratorIT_Lb0EXLi0EEEENS6_9size_typeE, symObjAddr: 0xDC90, symBinAddr: 0x10000E97C, symSize: 0x160 }
  - { offsetInCU: 0xA7C1, offset: 0xA7C1, size: 0x8, addend: 0x0, symName: __ZNSt3__114__fill_n_falseB8ue170006INS_6vectorIbNS_9allocatorIbEEEEEEvNS_14__bit_iteratorIT_Lb0EXLi0EEEENS6_9size_typeE, symObjAddr: 0xDDF0, symBinAddr: 0x10000EADC, symSize: 0x15C }
  - { offsetInCU: 0xB793, offset: 0xB793, size: 0x8, addend: 0x0, symName: __ZNSt3__13minB8ue170006IiEERKT_S3_S3_, symObjAddr: 0x510, symBinAddr: 0x1000011FC, symSize: 0x2C }
  - { offsetInCU: 0xC61C, offset: 0xC61C, size: 0x8, addend: 0x0, symName: __ZNSt3__14endlB8ue170006IcNS_11char_traitsIcEEEERNS_13basic_ostreamIT_T0_EES7_, symObjAddr: 0x143C, symBinAddr: 0x100002128, symSize: 0x58 }
  - { offsetInCU: 0xC65C, offset: 0xC65C, size: 0x8, addend: 0x0, symName: __ZNSt3__13minB8ue170006IiNS_6__lessIvvEEEERKT_S5_S5_T0_, symObjAddr: 0x1494, symBinAddr: 0x100002180, symSize: 0x54 }
  - { offsetInCU: 0xC75D, offset: 0xC75D, size: 0x8, addend: 0x0, symName: __ZNSt3__1neB8ue170006ERKNS_16__deque_iteratorI13travel_statusPS1_RS1_PS2_lLl73EEES7_, symObjAddr: 0x1BFC, symBinAddr: 0x1000028E8, symSize: 0x34 }
  - { offsetInCU: 0xC79A, offset: 0xC79A, size: 0x8, addend: 0x0, symName: __ZNSt3__1eqB8ue170006ERKNS_16__deque_iteratorI13travel_statusPS1_RS1_PS2_lLl73EEES7_, symObjAddr: 0x1F5C, symBinAddr: 0x100002C48, symSize: 0x30 }
  - { offsetInCU: 0xC7D7, offset: 0xC7D7, size: 0x8, addend: 0x0, symName: __ZNSt3__112__to_addressB8ue170006I13travel_statusEEPT_S3_, symObjAddr: 0x2618, symBinAddr: 0x100003304, symSize: 0x14 }
  - { offsetInCU: 0xC80C, offset: 0xC80C, size: 0x8, addend: 0x0, symName: __ZNSt3__119__libcpp_deallocateB8ue170006EPvmm, symObjAddr: 0x2788, symBinAddr: 0x100003474, symSize: 0x30 }
  - { offsetInCU: 0xC854, offset: 0xC854, size: 0x8, addend: 0x0, symName: __ZNSt3__127__do_deallocate_handle_sizeB8ue170006IJEEEvPvmDpT_, symObjAddr: 0x27B8, symBinAddr: 0x1000034A4, symSize: 0x28 }
  - { offsetInCU: 0xC892, offset: 0xC892, size: 0x8, addend: 0x0, symName: __ZNSt3__124__libcpp_operator_deleteB8ue170006IJPvEEEvDpT_, symObjAddr: 0x27E0, symBinAddr: 0x1000034CC, symSize: 0x24 }
  - { offsetInCU: 0xC8C7, offset: 0xC8C7, size: 0x8, addend: 0x0, symName: __ZNSt3__112__to_addressB8ue170006IP13travel_statusEEPT_S4_, symObjAddr: 0x2A64, symBinAddr: 0x100003750, symSize: 0x14 }
  - { offsetInCU: 0xC8FC, offset: 0xC8FC, size: 0x8, addend: 0x0, symName: __ZNSt3__112__to_addressB8ue170006IiEEPT_S2_, symObjAddr: 0x3010, symBinAddr: 0x100003CFC, symSize: 0x14 }
  - { offsetInCU: 0xC931, offset: 0xC931, size: 0x8, addend: 0x0, symName: __ZNSt3__112__to_addressB8ue170006INS_6vectorIiNS_9allocatorIiEEEEEEPT_S6_, symObjAddr: 0x3620, symBinAddr: 0x10000430C, symSize: 0x14 }
  - { offsetInCU: 0xC966, offset: 0xC966, size: 0x8, addend: 0x0, symName: __ZNSt3__18distanceB8ue170006INS_11__wrap_iterIPiEEEENS_15iterator_traitsIT_E15difference_typeES5_S5_, symObjAddr: 0x3D4C, symBinAddr: 0x100004A38, symSize: 0x3C }
  - { offsetInCU: 0xC9A9, offset: 0xC9A9, size: 0x8, addend: 0x0, symName: __ZNSt3__14nextB8ue170006INS_11__wrap_iterIPiEEEENS_9enable_ifIXsr29__has_input_iterator_categoryIT_EE5valueES5_E4typeES5_NS_15iterator_traitsIS5_E15difference_typeE, symObjAddr: 0x3D88, symBinAddr: 0x100004A74, symSize: 0x3C }
  - { offsetInCU: 0xC9EC, offset: 0xC9EC, size: 0x8, addend: 0x0, symName: __ZNSt3__14copyB8ue170006INS_11__wrap_iterIPiEES2_EET0_T_S5_S4_, symObjAddr: 0x3DC4, symBinAddr: 0x100004AB0, symSize: 0x50 }
  - { offsetInCU: 0xCA46, offset: 0xCA46, size: 0x8, addend: 0x0, symName: __ZNSt3__16__copyB8ue170006INS_17_ClassicAlgPolicyENS_11__wrap_iterIPiEES4_S3_EENS_4pairIT0_T2_EES6_T1_S7_, symObjAddr: 0x3EB0, symBinAddr: 0x100004B9C, symSize: 0x54 }
  - { offsetInCU: 0xCAB2, offset: 0xCAB2, size: 0x8, addend: 0x0, symName: __ZNSt3__121__convert_to_integralB8ue170006El, symObjAddr: 0x417C, symBinAddr: 0x100004E68, symSize: 0x14 }
  - { offsetInCU: 0xCADE, offset: 0xCADE, size: 0x8, addend: 0x0, symName: __ZNSt3__19__advanceB8ue170006INS_11__wrap_iterIPiEEEEvRT_NS_15iterator_traitsIS4_E15difference_typeENS_26random_access_iterator_tagE, symObjAddr: 0x4190, symBinAddr: 0x100004E7C, symSize: 0x2C }
  - { offsetInCU: 0xCB27, offset: 0xCB27, size: 0x8, addend: 0x0, symName: __ZNSt3__130__uninitialized_allocator_copyB8ue170006INS_9allocatorIiEENS_11__wrap_iterIPiEES5_S4_EET2_RT_T0_T1_S6_, symObjAddr: 0x41F8, symBinAddr: 0x100004EE4, symSize: 0x90 }
  - { offsetInCU: 0xCBC4, offset: 0xCBC4, size: 0x8, addend: 0x0, symName: __ZNSt3__114__unwrap_rangeB8ue170006INS_11__wrap_iterIPiEES2_EENS_4pairIT0_S5_EET_S7_, symObjAddr: 0x42F8, symBinAddr: 0x100004FE4, symSize: 0x70 }
  - { offsetInCU: 0xCC10, offset: 0xCC10, size: 0x8, addend: 0x0, symName: __ZNSt3__135__uninitialized_allocator_copy_implB8ue170006INS_9allocatorIiEEiiiLPv0EEEPT2_RT_PT0_S9_S5_, symObjAddr: 0x4368, symBinAddr: 0x100005054, symSize: 0x38 }
  - { offsetInCU: 0xCC91, offset: 0xCC91, size: 0x8, addend: 0x0, symName: __ZNSt3__113__unwrap_iterB8ue170006IPiNS_18__unwrap_iter_implIS1_Lb1EEELi0EEEDTclsrT0_8__unwrapclsr3stdE7declvalIT_EEEES5_, symObjAddr: 0x43A0, symBinAddr: 0x10000508C, symSize: 0x24 }
  - { offsetInCU: 0xCCD5, offset: 0xCCD5, size: 0x8, addend: 0x0, symName: __ZNSt3__113__rewrap_iterB8ue170006IPiS1_NS_18__unwrap_iter_implIS1_Lb1EEEEET_S4_T0_, symObjAddr: 0x43C4, symBinAddr: 0x1000050B0, symSize: 0x3C }
  - { offsetInCU: 0xCD2A, offset: 0xCD2A, size: 0x8, addend: 0x0, symName: __ZNSt3__19make_pairB8ue170006IPiS1_EENS_4pairINS_18__unwrap_ref_decayIT_E4typeENS3_IT0_E4typeEEEOS4_OS7_, symObjAddr: 0x4400, symBinAddr: 0x1000050EC, symSize: 0x38 }
  - { offsetInCU: 0xCD79, offset: 0xCD79, size: 0x8, addend: 0x0, symName: __ZNSt3__113__unwrap_iterB8ue170006INS_11__wrap_iterIPiEENS_18__unwrap_iter_implIS3_Lb1EEELi0EEEDTclsrT0_8__unwrapclsr3stdE7declvalIT_EEEES7_, symObjAddr: 0x4438, symBinAddr: 0x100005124, symSize: 0x2C }
  - { offsetInCU: 0xCF13, offset: 0xCF13, size: 0x8, addend: 0x0, symName: __ZNSt3__112__to_addressB8ue170006INS_11__wrap_iterIPiEEvEEu7__decayIDTclsr19__to_address_helperIT_EE6__callclsr3stdE7declvalIRKS4_EEEEES6_, symObjAddr: 0x44FC, symBinAddr: 0x1000051E8, symSize: 0x24 }
  - { offsetInCU: 0xCFEE, offset: 0xCFEE, size: 0x8, addend: 0x0, symName: __ZNSt3__14copyB8ue170006IPiS1_EET0_T_S3_S2_, symObjAddr: 0x4594, symBinAddr: 0x100005280, symSize: 0x40 }
  - { offsetInCU: 0xD048, offset: 0xD048, size: 0x8, addend: 0x0, symName: __ZNSt3__16__copyB8ue170006INS_17_ClassicAlgPolicyEPiS2_S2_EENS_4pairIT0_T2_EES4_T1_S5_, symObjAddr: 0x45D4, symBinAddr: 0x1000052C0, symSize: 0x44 }
  - { offsetInCU: 0xD0B4, offset: 0xD0B4, size: 0x8, addend: 0x0, symName: __ZNSt3__123__dispatch_copy_or_moveB8ue170006INS_17_ClassicAlgPolicyENS_11__copy_loopIS1_EENS_14__copy_trivialEPiS5_S5_EENS_4pairIT2_T4_EES7_T3_S8_, symObjAddr: 0x4618, symBinAddr: 0x100005304, symSize: 0x44 }
  - { offsetInCU: 0xD132, offset: 0xD132, size: 0x8, addend: 0x0, symName: __ZNSt3__121__unwrap_and_dispatchB8ue170006INS_10__overloadINS_11__copy_loopINS_17_ClassicAlgPolicyEEENS_14__copy_trivialEEEPiS7_S7_Li0EEENS_4pairIT0_T2_EES9_T1_SA_, symObjAddr: 0x465C, symBinAddr: 0x100005348, symSize: 0xB4 }
  - { offsetInCU: 0xD1C0, offset: 0xD1C0, size: 0x8, addend: 0x0, symName: __ZNSt3__114__unwrap_rangeB8ue170006IPiS1_EENS_4pairIT0_S3_EET_S5_, symObjAddr: 0x4710, symBinAddr: 0x1000053FC, symSize: 0x60 }
  - { offsetInCU: 0xD28E, offset: 0xD28E, size: 0x8, addend: 0x0, symName: __ZNSt3__114__rewrap_rangeB8ue170006IPiS1_EET_S2_T0_, symObjAddr: 0x47B8, symBinAddr: 0x1000054A4, symSize: 0x2C }
  - { offsetInCU: 0xD2DA, offset: 0xD2DA, size: 0x8, addend: 0x0, symName: __ZNSt3__119__copy_trivial_implB8ue170006IiiEENS_4pairIPT_PT0_EES3_S3_S5_, symObjAddr: 0x47E4, symBinAddr: 0x1000054D0, symSize: 0x80 }
  - { offsetInCU: 0xD342, offset: 0xD342, size: 0x8, addend: 0x0, symName: __ZNSt3__119__constexpr_memmoveB8ue170006IiiLi0EEEPT_S2_PT0_NS_15__element_countE, symObjAddr: 0x4864, symBinAddr: 0x100005550, symSize: 0x64 }
  - { offsetInCU: 0xD3B0, offset: 0xD3B0, size: 0x8, addend: 0x0, symName: __ZNSt3__19make_pairB8ue170006IRPiS1_EENS_4pairINS_18__unwrap_ref_decayIT_E4typeENS4_IT0_E4typeEEEOS5_OS8_, symObjAddr: 0x48C8, symBinAddr: 0x1000055B4, symSize: 0x38 }
  - { offsetInCU: 0xD452, offset: 0xD452, size: 0x8, addend: 0x0, symName: __ZNSt3__123__dispatch_copy_or_moveB8ue170006INS_17_ClassicAlgPolicyENS_11__copy_loopIS1_EENS_14__copy_trivialENS_11__wrap_iterIPiEES7_S6_EENS_4pairIT2_T4_EES9_T3_SA_, symObjAddr: 0x4A04, symBinAddr: 0x1000056F0, symSize: 0x54 }
  - { offsetInCU: 0xD4D0, offset: 0xD4D0, size: 0x8, addend: 0x0, symName: __ZNSt3__121__unwrap_and_dispatchB8ue170006INS_10__overloadINS_11__copy_loopINS_17_ClassicAlgPolicyEEENS_14__copy_trivialEEENS_11__wrap_iterIPiEES9_S8_Li0EEENS_4pairIT0_T2_EESB_T1_SC_, symObjAddr: 0x4A58, symBinAddr: 0x100005744, symSize: 0xCC }
  - { offsetInCU: 0xD55E, offset: 0xD55E, size: 0x8, addend: 0x0, symName: __ZNSt3__19make_pairB8ue170006INS_11__wrap_iterIPiEES2_EENS_4pairINS_18__unwrap_ref_decayIT_E4typeENS5_IT0_E4typeEEEOS6_OS9_, symObjAddr: 0x4B24, symBinAddr: 0x100005810, symSize: 0x38 }
  - { offsetInCU: 0xD5AD, offset: 0xD5AD, size: 0x8, addend: 0x0, symName: __ZNSt3__114__rewrap_rangeB8ue170006INS_11__wrap_iterIPiEES2_EET_S4_T0_, symObjAddr: 0x4B5C, symBinAddr: 0x100005848, symSize: 0x3C }
  - { offsetInCU: 0xD6CD, offset: 0xD6CD, size: 0x8, addend: 0x0, symName: __ZNSt3__113__rewrap_iterB8ue170006INS_11__wrap_iterIPiEES2_NS_18__unwrap_iter_implIS3_Lb1EEEEET_S6_T0_, symObjAddr: 0x4C08, symBinAddr: 0x1000058F4, symSize: 0x4C }
  - { offsetInCU: 0xD722, offset: 0xD722, size: 0x8, addend: 0x0, symName: __ZNSt3__119__allocate_at_leastB8ue170006INS_9allocatorIiEEEENS_19__allocation_resultINS_16allocator_traitsIT_E7pointerEEERS5_m, symObjAddr: 0x4E84, symBinAddr: 0x100005B70, symSize: 0x40 }
  - { offsetInCU: 0xD765, offset: 0xD765, size: 0x8, addend: 0x0, symName: __ZNSt3__13minB8ue170006ImEERKT_S3_S3_, symObjAddr: 0x4F70, symBinAddr: 0x100005C5C, symSize: 0x2C }
  - { offsetInCU: 0xD9A9, offset: 0xD9A9, size: 0x8, addend: 0x0, symName: __ZNSt3__13minB8ue170006ImNS_6__lessIvvEEEERKT_S5_S5_T0_, symObjAddr: 0x4FFC, symBinAddr: 0x100005CE8, symSize: 0x54 }
  - { offsetInCU: 0xDA03, offset: 0xDA03, size: 0x8, addend: 0x0, symName: __ZNSt3__120__throw_length_errorB8ue170006EPKc, symObjAddr: 0x50D8, symBinAddr: 0x100005DC4, symSize: 0x64 }
  - { offsetInCU: 0xDA2D, offset: 0xDA2D, size: 0x8, addend: 0x0, symName: __ZNSt3__117__libcpp_allocateB8ue170006Emm, symObjAddr: 0x5248, symBinAddr: 0x100005F34, symSize: 0x28 }
  - { offsetInCU: 0xDA6A, offset: 0xDA6A, size: 0x8, addend: 0x0, symName: __ZNSt3__121__libcpp_operator_newB8ue170006IJmEEEPvDpT_, symObjAddr: 0x5270, symBinAddr: 0x100005F5C, symSize: 0x24 }
  - { offsetInCU: 0xDAA3, offset: 0xDAA3, size: 0x8, addend: 0x0, symName: __ZNSt3__13maxB8ue170006ImEERKT_S3_S3_, symObjAddr: 0x5294, symBinAddr: 0x100005F80, symSize: 0x2C }
  - { offsetInCU: 0xDAE6, offset: 0xDAE6, size: 0x8, addend: 0x0, symName: __ZNSt3__13maxB8ue170006ImNS_6__lessIvvEEEERKT_S5_S5_T0_, symObjAddr: 0x52C0, symBinAddr: 0x100005FAC, symSize: 0x54 }
  - { offsetInCU: 0xDB40, offset: 0xDB40, size: 0x8, addend: 0x0, symName: __ZNSt3__110__distanceB8ue170006INS_11__wrap_iterIPiEEEENS_15iterator_traitsIT_E15difference_typeES5_S5_NS_26random_access_iterator_tagE, symObjAddr: 0x5314, symBinAddr: 0x100006000, symSize: 0x30 }
  - { offsetInCU: 0xDB8D, offset: 0xDB8D, size: 0x8, addend: 0x0, symName: __ZNSt3__1miB8ue170006IPiS1_EEDTmicldtfp_4baseEcldtfp0_4baseEERKNS_11__wrap_iterIT_EERKNS3_IT0_EE, symObjAddr: 0x5344, symBinAddr: 0x100006030, symSize: 0x48 }
  - { offsetInCU: 0xDBD9, offset: 0xDBD9, size: 0x8, addend: 0x0, symName: __ZNSt3__122__make_exception_guardB8ue170006INS_6vectorIiNS_9allocatorIiEEE16__destroy_vectorEEENS_28__exception_guard_exceptionsIT_EES7_, symObjAddr: 0x5580, symBinAddr: 0x10000626C, symSize: 0x40 }
  - { offsetInCU: 0xDC0E, offset: 0xDC0E, size: 0x8, addend: 0x0, symName: __ZNSt3__130__uninitialized_allocator_copyB8ue170006INS_9allocatorIiEEPiS3_S3_EET2_RT_T0_T1_S4_, symObjAddr: 0x56EC, symBinAddr: 0x1000063D8, symSize: 0x80 }
  - { offsetInCU: 0xDCAB, offset: 0xDCAB, size: 0x8, addend: 0x0, symName: __ZNSt3__142__uninitialized_allocator_move_if_noexceptB8ue170006INS_9allocatorIiEENS_16reverse_iteratorIPiEES5_ivEET1_RT_T0_S9_S6_, symObjAddr: 0x6108, symBinAddr: 0x100006DF4, symSize: 0x78 }
  - { offsetInCU: 0xDD28, offset: 0xDD28, size: 0x8, addend: 0x0, symName: __ZNSt3__14swapB8ue170006IPiEENS_9enable_ifIXaasr21is_move_constructibleIT_EE5valuesr18is_move_assignableIS3_EE5valueEvE4typeERS3_S6_, symObjAddr: 0x61CC, symBinAddr: 0x100006EB8, symSize: 0x3C }
  - { offsetInCU: 0xDD79, offset: 0xDD79, size: 0x8, addend: 0x0, symName: __ZNSt3__14moveB8ue170006INS_16reverse_iteratorIPiEES3_EET0_T_S5_S4_, symObjAddr: 0x6208, symBinAddr: 0x100006EF4, symSize: 0x78 }
  - { offsetInCU: 0xDDD3, offset: 0xDDD3, size: 0x8, addend: 0x0, symName: __ZNSt3__16__moveB8ue170006INS_17_ClassicAlgPolicyENS_16reverse_iteratorIPiEES4_S4_EENS_4pairIT0_T2_EES6_T1_S7_, symObjAddr: 0x6280, symBinAddr: 0x100006F6C, symSize: 0x64 }
  - { offsetInCU: 0xDE3F, offset: 0xDE3F, size: 0x8, addend: 0x0, symName: __ZNSt3__123__dispatch_copy_or_moveB8ue170006INS_17_ClassicAlgPolicyENS_11__move_loopIS1_EENS_14__move_trivialENS_16reverse_iteratorIPiEES7_S7_EENS_4pairIT2_T4_EES9_T3_SA_, symObjAddr: 0x62E4, symBinAddr: 0x100006FD0, symSize: 0x64 }
  - { offsetInCU: 0xDEBD, offset: 0xDEBD, size: 0x8, addend: 0x0, symName: __ZNSt3__121__unwrap_and_dispatchB8ue170006INS_10__overloadINS_11__move_loopINS_17_ClassicAlgPolicyEEENS_14__move_trivialEEENS_16reverse_iteratorIPiEES9_S9_Li0EEENS_4pairIT0_T2_EESB_T1_SC_, symObjAddr: 0x6348, symBinAddr: 0x100007034, symSize: 0x12C }
  - { offsetInCU: 0xDF4D, offset: 0xDF4D, size: 0x8, addend: 0x0, symName: __ZNSt3__114__unwrap_rangeB8ue170006INS_16reverse_iteratorIPiEES3_EENS_4pairIT0_S5_EET_S7_, symObjAddr: 0x6474, symBinAddr: 0x100007160, symSize: 0x84 }
  - { offsetInCU: 0xE0C8, offset: 0xE0C8, size: 0x8, addend: 0x0, symName: __ZNSt3__113__unwrap_iterB8ue170006INS_16reverse_iteratorIPiEENS_18__unwrap_iter_implIS3_Lb0EEELi0EEEDTclsrT0_8__unwrapclsr3stdE7declvalIT_EEEES7_, symObjAddr: 0x6598, symBinAddr: 0x100007284, symSize: 0x44 }
  - { offsetInCU: 0xE10C, offset: 0xE10C, size: 0x8, addend: 0x0, symName: __ZNSt3__19make_pairB8ue170006INS_16reverse_iteratorIPiEES3_EENS_4pairINS_18__unwrap_ref_decayIT_E4typeENS5_IT0_E4typeEEEOS6_OS9_, symObjAddr: 0x65DC, symBinAddr: 0x1000072C8, symSize: 0x38 }
  - { offsetInCU: 0xE15B, offset: 0xE15B, size: 0x8, addend: 0x0, symName: __ZNSt3__114__rewrap_rangeB8ue170006INS_16reverse_iteratorIPiEES3_EET_S4_T0_, symObjAddr: 0x6614, symBinAddr: 0x100007300, symSize: 0x5C }
  - { offsetInCU: 0xE1A7, offset: 0xE1A7, size: 0x8, addend: 0x0, symName: __ZNSt3__113__rewrap_iterB8ue170006INS_16reverse_iteratorIPiEES3_NS_18__unwrap_iter_implIS3_Lb0EEEEET_S6_T0_, symObjAddr: 0x6670, symBinAddr: 0x10000735C, symSize: 0x74 }
  - { offsetInCU: 0xE1FC, offset: 0xE1FC, size: 0x8, addend: 0x0, symName: __ZNSt3__1neB8ue170006IPiS1_EEbRKNS_16reverse_iteratorIT_EERKNS2_IT0_EE, symObjAddr: 0x66E4, symBinAddr: 0x1000073D0, symSize: 0x48 }
  - { offsetInCU: 0xE753, offset: 0xE753, size: 0x8, addend: 0x0, symName: __ZNSt3__14swapB8ue170006IPP13travel_statusEENS_9enable_ifIXaasr21is_move_constructibleIT_EE5valuesr18is_move_assignableIS5_EE5valueEvE4typeERS5_S8_, symObjAddr: 0x7F1C, symBinAddr: 0x100008C08, symSize: 0x3C }
  - { offsetInCU: 0xE7A4, offset: 0xE7A4, size: 0x8, addend: 0x0, symName: __ZNSt3__14moveB8ue170006IPP13travel_statusS3_EET0_T_S5_S4_, symObjAddr: 0x8000, symBinAddr: 0x100008CEC, symSize: 0x40 }
  - { offsetInCU: 0xE81A, offset: 0xE81A, size: 0x8, addend: 0x0, symName: __ZNSt3__16__moveB8ue170006INS_17_ClassicAlgPolicyEPP13travel_statusS4_S4_EENS_4pairIT0_T2_EES6_T1_S7_, symObjAddr: 0x8108, symBinAddr: 0x100008DF4, symSize: 0x44 }
  - { offsetInCU: 0xE886, offset: 0xE886, size: 0x8, addend: 0x0, symName: __ZNSt3__123__dispatch_copy_or_moveB8ue170006INS_17_ClassicAlgPolicyENS_11__move_loopIS1_EENS_14__move_trivialEPP13travel_statusS7_S7_EENS_4pairIT2_T4_EES9_T3_SA_, symObjAddr: 0x814C, symBinAddr: 0x100008E38, symSize: 0x44 }
  - { offsetInCU: 0xE904, offset: 0xE904, size: 0x8, addend: 0x0, symName: __ZNSt3__121__unwrap_and_dispatchB8ue170006INS_10__overloadINS_11__move_loopINS_17_ClassicAlgPolicyEEENS_14__move_trivialEEEPP13travel_statusS9_S9_Li0EEENS_4pairIT0_T2_EESB_T1_SC_, symObjAddr: 0x8190, symBinAddr: 0x100008E7C, symSize: 0xB4 }
  - { offsetInCU: 0xE992, offset: 0xE992, size: 0x8, addend: 0x0, symName: __ZNSt3__114__unwrap_rangeB8ue170006IPP13travel_statusS3_EENS_4pairIT0_S5_EET_S7_, symObjAddr: 0x8244, symBinAddr: 0x100008F30, symSize: 0x60 }
  - { offsetInCU: 0xEB56, offset: 0xEB56, size: 0x8, addend: 0x0, symName: __ZNSt3__113__unwrap_iterB8ue170006IPP13travel_statusNS_18__unwrap_iter_implIS3_Lb1EEELi0EEEDTclsrT0_8__unwrapclsr3stdE7declvalIT_EEEES7_, symObjAddr: 0x82EC, symBinAddr: 0x100008FD8, symSize: 0x24 }
  - { offsetInCU: 0xEB9A, offset: 0xEB9A, size: 0x8, addend: 0x0, symName: __ZNSt3__19make_pairB8ue170006IPP13travel_statusS3_EENS_4pairINS_18__unwrap_ref_decayIT_E4typeENS5_IT0_E4typeEEEOS6_OS9_, symObjAddr: 0x8310, symBinAddr: 0x100008FFC, symSize: 0x38 }
  - { offsetInCU: 0xEBE9, offset: 0xEBE9, size: 0x8, addend: 0x0, symName: __ZNSt3__114__rewrap_rangeB8ue170006IPP13travel_statusS3_EET_S4_T0_, symObjAddr: 0x8348, symBinAddr: 0x100009034, symSize: 0x2C }
  - { offsetInCU: 0xEC35, offset: 0xEC35, size: 0x8, addend: 0x0, symName: __ZNSt3__113__rewrap_iterB8ue170006IPP13travel_statusS3_NS_18__unwrap_iter_implIS3_Lb1EEEEET_S6_T0_, symObjAddr: 0x8374, symBinAddr: 0x100009060, symSize: 0x3C }
  - { offsetInCU: 0xEC8A, offset: 0xEC8A, size: 0x8, addend: 0x0, symName: __ZNSt3__119__copy_trivial_implB8ue170006IP13travel_statusS2_EENS_4pairIPT_PT0_EES5_S5_S7_, symObjAddr: 0x83B0, symBinAddr: 0x10000909C, symSize: 0x80 }
  - { offsetInCU: 0xECF2, offset: 0xECF2, size: 0x8, addend: 0x0, symName: __ZNSt3__119__constexpr_memmoveB8ue170006IP13travel_statusS2_Li0EEEPT_S4_PT0_NS_15__element_countE, symObjAddr: 0x8430, symBinAddr: 0x10000911C, symSize: 0x64 }
  - { offsetInCU: 0xED60, offset: 0xED60, size: 0x8, addend: 0x0, symName: __ZNSt3__19make_pairB8ue170006IRPP13travel_statusS3_EENS_4pairINS_18__unwrap_ref_decayIT_E4typeENS6_IT0_E4typeEEEOS7_OSA_, symObjAddr: 0x8494, symBinAddr: 0x100009180, symSize: 0x38 }
  - { offsetInCU: 0xEE02, offset: 0xEE02, size: 0x8, addend: 0x0, symName: __ZNSt3__18distanceB8ue170006INS_13move_iteratorIPP13travel_statusEEEENS_15iterator_traitsIT_E15difference_typeES7_S7_, symObjAddr: 0x86FC, symBinAddr: 0x1000093E8, symSize: 0x3C }
  - { offsetInCU: 0xEE45, offset: 0xEE45, size: 0x8, addend: 0x0, symName: __ZNSt3__110__distanceB8ue170006INS_13move_iteratorIPP13travel_statusEEEENS_15iterator_traitsIT_E15difference_typeES7_S7_NS_26random_access_iterator_tagE, symObjAddr: 0x8900, symBinAddr: 0x1000095EC, symSize: 0x30 }
  - { offsetInCU: 0xEE92, offset: 0xEE92, size: 0x8, addend: 0x0, symName: __ZNSt3__1miB8ue170006IPP13travel_statusS3_EEDTmicldtfp_4baseEcldtfp0_4baseEERKNS_13move_iteratorIT_EERKNS5_IT0_EE, symObjAddr: 0x8930, symBinAddr: 0x10000961C, symSize: 0x48 }
  - { offsetInCU: 0xEEE1, offset: 0xEEE1, size: 0x8, addend: 0x0, symName: __ZNSt3__113move_backwardB8ue170006IPP13travel_statusS3_EET0_T_S5_S4_, symObjAddr: 0x8A78, symBinAddr: 0x100009764, symSize: 0x40 }
  - { offsetInCU: 0xEF3B, offset: 0xEF3B, size: 0x8, addend: 0x0, symName: __ZNSt3__115__move_backwardB8ue170006INS_17_ClassicAlgPolicyEPP13travel_statusS4_S4_EENS_4pairIT0_T2_EES6_T1_S7_, symObjAddr: 0x8AB8, symBinAddr: 0x1000097A4, symSize: 0x44 }
  - { offsetInCU: 0xEFA7, offset: 0xEFA7, size: 0x8, addend: 0x0, symName: __ZNSt3__123__dispatch_copy_or_moveB8ue170006INS_17_ClassicAlgPolicyENS_20__move_backward_loopIS1_EENS_23__move_backward_trivialEPP13travel_statusS7_S7_EENS_4pairIT2_T4_EES9_T3_SA_, symObjAddr: 0x8AFC, symBinAddr: 0x1000097E8, symSize: 0x44 }
  - { offsetInCU: 0xF025, offset: 0xF025, size: 0x8, addend: 0x0, symName: __ZNSt3__121__unwrap_and_dispatchB8ue170006INS_10__overloadINS_20__move_backward_loopINS_17_ClassicAlgPolicyEEENS_23__move_backward_trivialEEEPP13travel_statusS9_S9_Li0EEENS_4pairIT0_T2_EESB_T1_SC_, symObjAddr: 0x8B40, symBinAddr: 0x10000982C, symSize: 0xB4 }
  - { offsetInCU: 0xF0F9, offset: 0xF0F9, size: 0x8, addend: 0x0, symName: __ZNSt3__128__copy_backward_trivial_implB8ue170006IP13travel_statusS2_EENS_4pairIPT_PT0_EES5_S5_S7_, symObjAddr: 0x8C3C, symBinAddr: 0x100009928, symSize: 0x90 }
  - { offsetInCU: 0xF161, offset: 0xF161, size: 0x8, addend: 0x0, symName: __ZNSt3__19make_pairB8ue170006IRPP13travel_statusS4_EENS_4pairINS_18__unwrap_ref_decayIT_E4typeENS6_IT0_E4typeEEEOS7_OSA_, symObjAddr: 0x8CCC, symBinAddr: 0x1000099B8, symSize: 0x38 }
  - { offsetInCU: 0xF1B0, offset: 0xF1B0, size: 0x8, addend: 0x0, symName: __ZNSt3__119__allocate_at_leastB8ue170006INS_9allocatorIP13travel_statusEEEENS_19__allocation_resultINS_16allocator_traitsIT_E7pointerEEERS7_m, symObjAddr: 0x8E84, symBinAddr: 0x100009B70, symSize: 0x40 }
  - { offsetInCU: 0xF1F3, offset: 0xF1F3, size: 0x8, addend: 0x0, symName: __ZNSt3__18distanceB8ue170006IPiEENS_15iterator_traitsIT_E15difference_typeES3_S3_, symObjAddr: 0x99B8, symBinAddr: 0x10000A6A4, symSize: 0x2C }
  - { offsetInCU: 0xF236, offset: 0xF236, size: 0x8, addend: 0x0, symName: __ZNSt3__14nextB8ue170006IPiEENS_9enable_ifIXsr29__has_input_iterator_categoryIT_EE5valueES3_E4typeES3_NS_15iterator_traitsIS3_E15difference_typeE, symObjAddr: 0x99E4, symBinAddr: 0x10000A6D0, symSize: 0x34 }
  - { offsetInCU: 0xF279, offset: 0xF279, size: 0x8, addend: 0x0, symName: __ZNSt3__19__advanceB8ue170006IPiEEvRT_NS_15iterator_traitsIS2_E15difference_typeENS_26random_access_iterator_tagE, symObjAddr: 0x9A50, symBinAddr: 0x10000A73C, symSize: 0x28 }
  - { offsetInCU: 0xF2C2, offset: 0xF2C2, size: 0x8, addend: 0x0, symName: __ZNSt3__110__distanceB8ue170006IPiEENS_15iterator_traitsIT_E15difference_typeES3_S3_NS_26random_access_iterator_tagE, symObjAddr: 0x9A78, symBinAddr: 0x10000A764, symSize: 0x28 }
  - { offsetInCU: 0xF30F, offset: 0xF30F, size: 0x8, addend: 0x0, symName: __ZNSt3__119__allocate_at_leastB8ue170006INS_9allocatorINS_6vectorIiNS1_IiEEEEEEEENS_19__allocation_resultINS_16allocator_traitsIT_E7pointerEEERS8_m, symObjAddr: 0xA7D4, symBinAddr: 0x10000B4C0, symSize: 0x40 }
  - { offsetInCU: 0xF352, offset: 0xF352, size: 0x8, addend: 0x0, symName: __ZNSt3__142__uninitialized_allocator_move_if_noexceptB8ue170006INS_9allocatorINS_6vectorIiNS1_IiEEEEEENS_16reverse_iteratorIPS4_EES8_S8_EET2_RT_T0_T1_S9_, symObjAddr: 0xAA60, symBinAddr: 0x10000B74C, symSize: 0x12C }
  - { offsetInCU: 0xF3F2, offset: 0xF3F2, size: 0x8, addend: 0x0, symName: __ZNSt3__14swapB8ue170006IPNS_6vectorIiNS_9allocatorIiEEEEEENS_9enable_ifIXaasr21is_move_constructibleIT_EE5valuesr18is_move_assignableIS7_EE5valueEvE4typeERS7_SA_, symObjAddr: 0xABD8, symBinAddr: 0x10000B8C4, symSize: 0x3C }
  - { offsetInCU: 0xF443, offset: 0xF443, size: 0x8, addend: 0x0, symName: __ZNSt3__122__make_exception_guardB8ue170006INS_29_AllocatorDestroyRangeReverseINS_9allocatorINS_6vectorIiNS2_IiEEEEEENS_16reverse_iteratorIPS5_EEEEEENS_28__exception_guard_exceptionsIT_EESC_, symObjAddr: 0xACDC, symBinAddr: 0x10000B9C8, symSize: 0x4C }
  - { offsetInCU: 0xF479, offset: 0xF479, size: 0x8, addend: 0x0, symName: __ZNSt3__1neB8ue170006IPNS_6vectorIiNS_9allocatorIiEEEES5_EEbRKNS_16reverse_iteratorIT_EERKNS6_IT0_EE, symObjAddr: 0xAD6C, symBinAddr: 0x10000BA58, symSize: 0x48 }
  - { offsetInCU: 0xF4C5, offset: 0xF4C5, size: 0x8, addend: 0x0, symName: __ZNSt3__112__to_addressB8ue170006INS_16reverse_iteratorIPNS_6vectorIiNS_9allocatorIiEEEEEEvEEu7__decayIDTclsr19__to_address_helperIT_EE6__callclsr3stdE7declvalIRKS8_EEEEESA_, symObjAddr: 0xADE8, symBinAddr: 0x10000BAD4, symSize: 0x24 }
  - { offsetInCU: 0xF524, offset: 0xF524, size: 0x8, addend: 0x0, symName: __ZNSt3__119__allocator_destroyB8ue170006INS_9allocatorINS_6vectorIiNS1_IiEEEEEENS_16reverse_iteratorINS6_IPS4_EEEES9_EEvRT_T0_T1_, symObjAddr: 0xB1C0, symBinAddr: 0x10000BEAC, symSize: 0x70 }
  - { offsetInCU: 0xF589, offset: 0xF589, size: 0x8, addend: 0x0, symName: __ZNSt3__1neB8ue170006INS_16reverse_iteratorIPNS_6vectorIiNS_9allocatorIiEEEEEES7_EEbRKNS1_IT_EERKNS1_IT0_EE, symObjAddr: 0xB26C, symBinAddr: 0x10000BF58, symSize: 0x60 }
  - { offsetInCU: 0xF5D5, offset: 0xF5D5, size: 0x8, addend: 0x0, symName: __ZNSt3__112__to_addressB8ue170006INS_16reverse_iteratorINS1_IPNS_6vectorIiNS_9allocatorIiEEEEEEEEvEEu7__decayIDTclsr19__to_address_helperIT_EE6__callclsr3stdE7declvalIRKS9_EEEEESB_, symObjAddr: 0xB2CC, symBinAddr: 0x10000BFB8, symSize: 0x24 }
  - { offsetInCU: 0xF634, offset: 0xF634, size: 0x8, addend: 0x0, symName: __ZNSt3__14copyB8ue170006INS_6vectorIbNS_9allocatorIbEEEELb1EEENS_14__bit_iteratorIT_Lb0EXLi0EEEENS5_IS6_XT0_EXLi0EEEES8_S7_, symObjAddr: 0xBA1C, symBinAddr: 0x10000C708, symSize: 0xD4 }
  - { offsetInCU: 0xF694, offset: 0xF694, size: 0x8, addend: 0x0, symName: __ZNSt3__16fill_nB8ue170006INS_6vectorIbNS_9allocatorIbEEEEEEvNS_14__bit_iteratorIT_Lb0EXLi0EEEENS6_9size_typeEb, symObjAddr: 0xBC14, symBinAddr: 0x10000C900, symSize: 0x94 }
  - { offsetInCU: 0xF8E8, offset: 0xF8E8, size: 0x8, addend: 0x0, symName: __ZNSt3__119__allocate_at_leastB8ue170006INS_9allocatorImEEEENS_19__allocation_resultINS_16allocator_traitsIT_E7pointerEEERS5_m, symObjAddr: 0xC320, symBinAddr: 0x10000D00C, symSize: 0x40 }
  - { offsetInCU: 0xF92B, offset: 0xF92B, size: 0x8, addend: 0x0, symName: __ZNSt3__16__copyB8ue170006INS_17_ClassicAlgPolicyENS_14__bit_iteratorINS_6vectorIbNS_9allocatorIbEEEELb0ELm0EEES7_S7_EENS_4pairIT0_T2_EES9_T1_SA_, symObjAddr: 0xC3DC, symBinAddr: 0x10000D0C8, symSize: 0x88 }
  - { offsetInCU: 0xF99A, offset: 0xF99A, size: 0x8, addend: 0x0, symName: __ZNSt3__123__dispatch_copy_or_moveB8ue170006INS_17_ClassicAlgPolicyENS_11__copy_loopIS1_EENS_14__copy_trivialENS_14__bit_iteratorINS_6vectorIbNS_9allocatorIbEEEELb0ELm0EEESA_SA_EENS_4pairIT2_T4_EESC_T3_SD_, symObjAddr: 0xC464, symBinAddr: 0x10000D150, symSize: 0x88 }
  - { offsetInCU: 0xFA1B, offset: 0xFA1B, size: 0x8, addend: 0x0, symName: __ZNSt3__121__unwrap_and_dispatchB8ue170006INS_10__overloadINS_11__copy_loopINS_17_ClassicAlgPolicyEEENS_14__copy_trivialEEENS_14__bit_iteratorINS_6vectorIbNS_9allocatorIbEEEELb0ELm0EEESC_SC_Li0EEENS_4pairIT0_T2_EESE_T1_SF_, symObjAddr: 0xC4EC, symBinAddr: 0x10000D1D8, symSize: 0x15C }
  - { offsetInCU: 0xFAAE, offset: 0xFAAE, size: 0x8, addend: 0x0, symName: __ZNSt3__114__unwrap_rangeB8ue170006INS_14__bit_iteratorINS_6vectorIbNS_9allocatorIbEEEELb0ELm0EEES6_EENS_4pairIT0_S8_EET_SA_, symObjAddr: 0xC648, symBinAddr: 0x10000D334, symSize: 0x8C }
  - { offsetInCU: 0xFC22, offset: 0xFC22, size: 0x8, addend: 0x0, symName: __ZNSt3__113__unwrap_iterB8ue170006INS_14__bit_iteratorINS_6vectorIbNS_9allocatorIbEEEELb0ELm0EEENS_18__unwrap_iter_implIS6_Lb0EEELi0EEEDTclsrT0_8__unwrapclsr3stdE7declvalIT_EEEESA_, symObjAddr: 0xC78C, symBinAddr: 0x10000D478, symSize: 0x44 }
  - { offsetInCU: 0xFC67, offset: 0xFC67, size: 0x8, addend: 0x0, symName: __ZNSt3__19make_pairB8ue170006INS_14__bit_iteratorINS_6vectorIbNS_9allocatorIbEEEELb0ELm0EEES6_EENS_4pairINS_18__unwrap_ref_decayIT_E4typeENS8_IT0_E4typeEEEOS9_OSC_, symObjAddr: 0xC7D0, symBinAddr: 0x10000D4BC, symSize: 0x40 }
  - { offsetInCU: 0xFCB6, offset: 0xFCB6, size: 0x8, addend: 0x0, symName: __ZNSt3__114__rewrap_rangeB8ue170006INS_14__bit_iteratorINS_6vectorIbNS_9allocatorIbEEEELb0ELm0EEES6_EET_S7_T0_, symObjAddr: 0xC810, symBinAddr: 0x10000D4FC, symSize: 0x6C }
  - { offsetInCU: 0xFD04, offset: 0xFD04, size: 0x8, addend: 0x0, symName: __ZNSt3__113__rewrap_iterB8ue170006INS_14__bit_iteratorINS_6vectorIbNS_9allocatorIbEEEELb0ELm0EEES6_NS_18__unwrap_iter_implIS6_Lb0EEEEET_S9_T0_, symObjAddr: 0xC87C, symBinAddr: 0x10000D568, symSize: 0x74 }
  - { offsetInCU: 0xFD5B, offset: 0xFD5B, size: 0x8, addend: 0x0, symName: __ZNSt3__1neB8ue170006ERKNS_14__bit_iteratorINS_6vectorIbNS_9allocatorIbEEEELb0ELm0EEES7_, symObjAddr: 0xC8F0, symBinAddr: 0x10000D5DC, symSize: 0x34 }
  - { offsetInCU: 0xFD98, offset: 0xFD98, size: 0x8, addend: 0x0, symName: __ZNSt3__1eqB8ue170006ERKNS_14__bit_iteratorINS_6vectorIbNS_9allocatorIbEEEELb0ELm0EEES7_, symObjAddr: 0xCA04, symBinAddr: 0x10000D6F0, symSize: 0x64 }
  - { offsetInCU: 0xFE1D, offset: 0xFE1D, size: 0x8, addend: 0x0, symName: __ZNSt3__1miB8ue170006ERKNS_14__bit_iteratorINS_6vectorIbNS_9allocatorIbEEEELb1ELm0EEES7_, symObjAddr: 0xD304, symBinAddr: 0x10000DFF0, symSize: 0x48 }
  - { offsetInCU: 0xFE5A, offset: 0xFE5A, size: 0x8, addend: 0x0, symName: __ZNSt3__13minB8ue170006IlEERKT_S3_S3_, symObjAddr: 0xD34C, symBinAddr: 0x10000E038, symSize: 0x2C }
  - { offsetInCU: 0xFE9D, offset: 0xFE9D, size: 0x8, addend: 0x0, symName: __ZNSt3__112__to_addressB8ue170006IKmEEPT_S3_, symObjAddr: 0xD3BC, symBinAddr: 0x10000E0A8, symSize: 0x14 }
  - { offsetInCU: 0xFED2, offset: 0xFED2, size: 0x8, addend: 0x0, symName: __ZNSt3__112__to_addressB8ue170006ImEEPT_S2_, symObjAddr: 0xD3D0, symBinAddr: 0x10000E0BC, symSize: 0x14 }
  - { offsetInCU: 0xFF07, offset: 0xFF07, size: 0x8, addend: 0x0, symName: __ZNSt3__13minB8ue170006IlNS_6__lessIvvEEEERKT_S5_S5_T0_, symObjAddr: 0xD3E4, symBinAddr: 0x10000E0D0, symSize: 0x54 }
  - { offsetInCU: 0xFF61, offset: 0xFF61, size: 0x8, addend: 0x0, symName: __ZNSt3__14copyB8ue170006IPKmPmEET0_T_S5_S4_, symObjAddr: 0xD46C, symBinAddr: 0x10000E158, symSize: 0x40 }
  - { offsetInCU: 0xFFBB, offset: 0xFFBB, size: 0x8, addend: 0x0, symName: __ZNSt3__16__copyB8ue170006INS_17_ClassicAlgPolicyEPKmS3_PmEENS_4pairIT0_T2_EES6_T1_S7_, symObjAddr: 0xD4AC, symBinAddr: 0x10000E198, symSize: 0x44 }
  - { offsetInCU: 0x10027, offset: 0x10027, size: 0x8, addend: 0x0, symName: __ZNSt3__123__dispatch_copy_or_moveB8ue170006INS_17_ClassicAlgPolicyENS_11__copy_loopIS1_EENS_14__copy_trivialEPKmS6_PmEENS_4pairIT2_T4_EES9_T3_SA_, symObjAddr: 0xD4F0, symBinAddr: 0x10000E1DC, symSize: 0x44 }
  - { offsetInCU: 0x100A5, offset: 0x100A5, size: 0x8, addend: 0x0, symName: __ZNSt3__121__unwrap_and_dispatchB8ue170006INS_10__overloadINS_11__copy_loopINS_17_ClassicAlgPolicyEEENS_14__copy_trivialEEEPKmS8_PmLi0EEENS_4pairIT0_T2_EESB_T1_SC_, symObjAddr: 0xD534, symBinAddr: 0x10000E220, symSize: 0xB4 }
  - { offsetInCU: 0x10133, offset: 0x10133, size: 0x8, addend: 0x0, symName: __ZNSt3__114__unwrap_rangeB8ue170006IPKmS2_EENS_4pairIT0_S4_EET_S6_, symObjAddr: 0xD5E8, symBinAddr: 0x10000E2D4, symSize: 0x60 }
  - { offsetInCU: 0x10282, offset: 0x10282, size: 0x8, addend: 0x0, symName: __ZNSt3__113__unwrap_iterB8ue170006IPmNS_18__unwrap_iter_implIS1_Lb1EEELi0EEEDTclsrT0_8__unwrapclsr3stdE7declvalIT_EEEES5_, symObjAddr: 0xD690, symBinAddr: 0x10000E37C, symSize: 0x24 }
  - { offsetInCU: 0x102C6, offset: 0x102C6, size: 0x8, addend: 0x0, symName: __ZNSt3__19make_pairB8ue170006IPKmPmEENS_4pairINS_18__unwrap_ref_decayIT_E4typeENS5_IT0_E4typeEEEOS6_OS9_, symObjAddr: 0xD6B4, symBinAddr: 0x10000E3A0, symSize: 0x38 }
  - { offsetInCU: 0x10315, offset: 0x10315, size: 0x8, addend: 0x0, symName: __ZNSt3__114__rewrap_rangeB8ue170006IPKmS2_EET_S3_T0_, symObjAddr: 0xD6EC, symBinAddr: 0x10000E3D8, symSize: 0x2C }
  - { offsetInCU: 0x10361, offset: 0x10361, size: 0x8, addend: 0x0, symName: __ZNSt3__113__rewrap_iterB8ue170006IPmS1_NS_18__unwrap_iter_implIS1_Lb1EEEEET_S4_T0_, symObjAddr: 0xD718, symBinAddr: 0x10000E404, symSize: 0x3C }
  - { offsetInCU: 0x103B6, offset: 0x103B6, size: 0x8, addend: 0x0, symName: __ZNSt3__19make_pairB8ue170006IPKmS2_EENS_4pairINS_18__unwrap_ref_decayIT_E4typeENS4_IT0_E4typeEEEOS5_OS8_, symObjAddr: 0xD754, symBinAddr: 0x10000E440, symSize: 0x38 }
  - { offsetInCU: 0x10405, offset: 0x10405, size: 0x8, addend: 0x0, symName: __ZNSt3__113__unwrap_iterB8ue170006IPKmNS_18__unwrap_iter_implIS2_Lb1EEELi0EEEDTclsrT0_8__unwrapclsr3stdE7declvalIT_EEEES6_, symObjAddr: 0xD78C, symBinAddr: 0x10000E478, symSize: 0x24 }
  - { offsetInCU: 0x10570, offset: 0x10570, size: 0x8, addend: 0x0, symName: __ZNSt3__119__copy_trivial_implB8ue170006IKmmEENS_4pairIPT_PT0_EES4_S4_S6_, symObjAddr: 0xD844, symBinAddr: 0x10000E530, symSize: 0x80 }
  - { offsetInCU: 0x105D8, offset: 0x105D8, size: 0x8, addend: 0x0, symName: __ZNSt3__119__constexpr_memmoveB8ue170006ImKmLi0EEEPT_S3_PT0_NS_15__element_countE, symObjAddr: 0xD8C4, symBinAddr: 0x10000E5B0, symSize: 0x64 }
  - { offsetInCU: 0x10646, offset: 0x10646, size: 0x8, addend: 0x0, symName: __ZNSt3__19make_pairB8ue170006IRPKmPmEENS_4pairINS_18__unwrap_ref_decayIT_E4typeENS6_IT0_E4typeEEEOS7_OSA_, symObjAddr: 0xD928, symBinAddr: 0x10000E614, symSize: 0x38 }
  - { offsetInCU: 0x106E8, offset: 0x106E8, size: 0x8, addend: 0x0, symName: __ZNSt3__113__rewrap_iterB8ue170006IPKmS2_NS_18__unwrap_iter_implIS2_Lb1EEEEET_S5_T0_, symObjAddr: 0xDA64, symBinAddr: 0x10000E750, symSize: 0x3C }
  - { offsetInCU: 0x1073D, offset: 0x1073D, size: 0x8, addend: 0x0, symName: __ZNSt3__14swapB8ue170006IPmEENS_9enable_ifIXaasr21is_move_constructibleIT_EE5valuesr18is_move_assignableIS3_EE5valueEvE4typeERS3_S6_, symObjAddr: 0xDC04, symBinAddr: 0x10000E8F0, symSize: 0x3C }
  - { offsetInCU: 0x1078E, offset: 0x1078E, size: 0x8, addend: 0x0, symName: __ZNSt3__14swapB8ue170006ImEENS_9enable_ifIXaasr21is_move_constructibleIT_EE5valuesr18is_move_assignableIS2_EE5valueEvE4typeERS2_S5_, symObjAddr: 0xDC40, symBinAddr: 0x10000E92C, symSize: 0x3C }
  - { offsetInCU: 0x107DF, offset: 0x107DF, size: 0x8, addend: 0x0, symName: __ZNSt3__116__swap_allocatorB8ue170006INS_9allocatorImEEEEvRT_S4_NS_17integral_constantIbLb0EEE, symObjAddr: 0xDC7C, symBinAddr: 0x10000E968, symSize: 0x14 }
  - { offsetInCU: 0x10820, offset: 0x10820, size: 0x8, addend: 0x0, symName: __ZNSt3__16fill_nB8ue170006IPmmmEET_S2_T0_RKT1_, symObjAddr: 0xDF4C, symBinAddr: 0x10000EC38, symSize: 0x44 }
  - { offsetInCU: 0x10883, offset: 0x10883, size: 0x8, addend: 0x0, symName: __ZNSt3__18__fill_nB8ue170006IPmmmEET_S2_T0_RKT1_, symObjAddr: 0xDF90, symBinAddr: 0x10000EC7C, symSize: 0x64 }
  - { offsetInCU: 0x108E6, offset: 0x108E6, size: 0x8, addend: 0x0, symName: __ZNSt3__121__convert_to_integralB8ue170006Em, symObjAddr: 0xDFF4, symBinAddr: 0x10000ECE0, symSize: 0x14 }
  - { offsetInCU: 0x10912, offset: 0x10912, size: 0x8, addend: 0x0, symName: __ZNSt3__16fill_nB8ue170006IPmmiEET_S2_T0_RKT1_, symObjAddr: 0xE008, symBinAddr: 0x10000ECF4, symSize: 0x44 }
  - { offsetInCU: 0x10975, offset: 0x10975, size: 0x8, addend: 0x0, symName: __ZNSt3__18__fill_nB8ue170006IPmmiEET_S2_T0_RKT1_, symObjAddr: 0xE04C, symBinAddr: 0x10000ED38, symSize: 0x64 }
  - { offsetInCU: 0x109D8, offset: 0x109D8, size: 0x8, addend: 0x0, symName: __ZNSt3__19use_facetB8ue170006INS_5ctypeIcEEEERKT_RKNS_6localeE, symObjAddr: 0xE164, symBinAddr: 0x10000EE50, symSize: 0x2C }
  - { offsetInCU: 0x113EB, offset: 0x113EB, size: 0x8, addend: 0x0, symName: __ZSt28__throw_bad_array_new_lengthB8ue170006v, symObjAddr: 0x5214, symBinAddr: 0x100005F00, symSize: 0x34 }
  - { offsetInCU: 0x115F7, offset: 0x115F7, size: 0x8, addend: 0x0, symName: _map, symObjAddr: 0x6C150, symBinAddr: 0x100014028, symSize: 0x0 }
  - { offsetInCU: 0x1176A, offset: 0x1176A, size: 0x8, addend: 0x0, symName: _visited, symObjAddr: 0x6C168, symBinAddr: 0x100014040, symSize: 0x0 }
  - { offsetInCU: 0x118FB, offset: 0x118FB, size: 0x8, addend: 0x0, symName: _MIN_COST, symObjAddr: 0xE798, symBinAddr: 0x100014000, symSize: 0x0 }
  - { offsetInCU: 0x11DFC, offset: 0x11DFC, size: 0x8, addend: 0x0, symName: __ZNSt3__16vectorIiNS_9allocatorIiEEE26__swap_out_circular_bufferERNS_14__split_bufferIiRS2_EE, symObjAddr: 0x5DA0, symBinAddr: 0x100006A8C, symSize: 0x110 }
  - { offsetInCU: 0x11EE9, offset: 0x11EE9, size: 0x8, addend: 0x0, symName: __ZNSt3__16vectorINS0_IiNS_9allocatorIiEEEENS1_IS3_EEE26__swap_out_circular_bufferERNS_14__split_bufferIS3_RS4_EE, symObjAddr: 0xA2F4, symBinAddr: 0x10000AFE0, symSize: 0x110 }
  - { offsetInCU: 0x142E1, offset: 0x142E1, size: 0x8, addend: 0x0, symName: __ZNSt3__16vectorIiNS_9allocatorIiEEEC1B8ue170006Ev, symObjAddr: 0x0, symBinAddr: 0x100000CEC, symSize: 0x2C }
  - { offsetInCU: 0x1430B, offset: 0x1430B, size: 0x8, addend: 0x0, symName: __ZNSt3__16vectorIiNS_9allocatorIiEEED1B8ue170006Ev, symObjAddr: 0x2C, symBinAddr: 0x100000D18, symSize: 0x2C }
  - { offsetInCU: 0x14335, offset: 0x14335, size: 0x8, addend: 0x0, symName: __ZNSt3__16vectorINS0_IiNS_9allocatorIiEEEENS1_IS3_EEEC1B8ue170006Ev, symObjAddr: 0x58, symBinAddr: 0x100000D44, symSize: 0x2C }
  - { offsetInCU: 0x1435F, offset: 0x1435F, size: 0x8, addend: 0x0, symName: __ZNSt3__16vectorINS0_IiNS_9allocatorIiEEEENS1_IS3_EEED1B8ue170006Ev, symObjAddr: 0x84, symBinAddr: 0x100000D70, symSize: 0x2C }
  - { offsetInCU: 0x14389, offset: 0x14389, size: 0x8, addend: 0x0, symName: __ZNSt3__16vectorIbNS_9allocatorIbEEEC1B8ue170006Ev, symObjAddr: 0xB0, symBinAddr: 0x100000D9C, symSize: 0x2C }
  - { offsetInCU: 0x143B5, offset: 0x143B5, size: 0x8, addend: 0x0, symName: __ZNSt3__16vectorIbNS_9allocatorIbEEED1B8ue170006Ev, symObjAddr: 0xDC, symBinAddr: 0x100000DC8, symSize: 0x2C }
  - { offsetInCU: 0x143DE, offset: 0x143DE, size: 0x8, addend: 0x0, symName: __Z10count_costNSt3__16vectorIiNS_9allocatorIiEEEES3_, symObjAddr: 0x108, symBinAddr: 0x100000DF4, symSize: 0x3E0 }
  - { offsetInCU: 0x144D4, offset: 0x144D4, size: 0x8, addend: 0x0, symName: __ZNKSt3__16vectorIiNS_9allocatorIiEEE4sizeB8ue170006Ev, symObjAddr: 0x4E8, symBinAddr: 0x1000011D4, symSize: 0x28 }
  - { offsetInCU: 0x144FA, offset: 0x144FA, size: 0x8, addend: 0x0, symName: __ZNSt3__16vectorIiNS_9allocatorIiEEEixB8ue170006Em, symObjAddr: 0x53C, symBinAddr: 0x100001228, symSize: 0x24 }
  - { offsetInCU: 0x14531, offset: 0x14531, size: 0x8, addend: 0x0, symName: __ZNSt3__16vectorIiNS_9allocatorIiEEE6assignINS_11__wrap_iterIPiEELi0EEEvT_S8_, symObjAddr: 0x560, symBinAddr: 0x10000124C, symSize: 0x6C }
  - { offsetInCU: 0x14586, offset: 0x14586, size: 0x8, addend: 0x0, symName: __ZNSt3__16vectorIiNS_9allocatorIiEEE5beginB8ue170006Ev, symObjAddr: 0x5CC, symBinAddr: 0x1000012B8, symSize: 0x30 }
  - { offsetInCU: 0x145AE, offset: 0x145AE, size: 0x8, addend: 0x0, symName: __ZNKSt3__111__wrap_iterIPiEplB8ue170006El, symObjAddr: 0x5FC, symBinAddr: 0x1000012E8, symSize: 0x3C }
  - { offsetInCU: 0x145F0, offset: 0x145F0, size: 0x8, addend: 0x0, symName: __ZNSt3__16vectorIiNS_9allocatorIiEEEC1ERKS3_, symObjAddr: 0x638, symBinAddr: 0x100001324, symSize: 0x34 }
  - { offsetInCU: 0x1462A, offset: 0x1462A, size: 0x8, addend: 0x0, symName: __Z3BFSiii, symObjAddr: 0x66C, symBinAddr: 0x100001358, symSize: 0x41C }
  - { offsetInCU: 0x146CF, offset: 0x146CF, size: 0x8, addend: 0x0, symName: __ZNSt3__16vectorIbNS_9allocatorIbEEEixB8ue170006Em, symObjAddr: 0xA88, symBinAddr: 0x100001774, symSize: 0x3C }
  - { offsetInCU: 0x14704, offset: 0x14704, size: 0x8, addend: 0x0, symName: __ZNSt3__115__bit_referenceINS_6vectorIbNS_9allocatorIbEEEELb1EEaSB8ue170006Eb, symObjAddr: 0xAC4, symBinAddr: 0x1000017B0, symSize: 0x6C }
  - { offsetInCU: 0x14774, offset: 0x14774, size: 0x8, addend: 0x0, symName: __ZNSt3__15queueI13travel_statusNS_5dequeIS1_NS_9allocatorIS1_EEEEEC1B8ue170006Ev, symObjAddr: 0xB30, symBinAddr: 0x10000181C, symSize: 0x2C }
  - { offsetInCU: 0x147A3, offset: 0x147A3, size: 0x8, addend: 0x0, symName: __ZN13travel_statusC1Ev, symObjAddr: 0xB5C, symBinAddr: 0x100001848, symSize: 0x2C }
  - { offsetInCU: 0x147CF, offset: 0x147CF, size: 0x8, addend: 0x0, symName: __ZNSt3__16vectorIiNS_9allocatorIiEEE9push_backB8ue170006EOi, symObjAddr: 0xB88, symBinAddr: 0x100001874, symSize: 0x6C }
  - { offsetInCU: 0x14806, offset: 0x14806, size: 0x8, addend: 0x0, symName: __ZNSt3__16vectorIiNS_9allocatorIiEEE9push_backB8ue170006ERKi, symObjAddr: 0xBF4, symBinAddr: 0x1000018E0, symSize: 0x6C }
  - { offsetInCU: 0x1483D, offset: 0x1483D, size: 0x8, addend: 0x0, symName: __ZNSt3__15queueI13travel_statusNS_5dequeIS1_NS_9allocatorIS1_EEEEE4pushB8ue170006ERKS1_, symObjAddr: 0xC60, symBinAddr: 0x10000194C, symSize: 0x2C }
  - { offsetInCU: 0x14872, offset: 0x14872, size: 0x8, addend: 0x0, symName: __ZNKSt3__15queueI13travel_statusNS_5dequeIS1_NS_9allocatorIS1_EEEEE5emptyB8ue170006Ev, symObjAddr: 0xC8C, symBinAddr: 0x100001978, symSize: 0x28 }
  - { offsetInCU: 0x14898, offset: 0x14898, size: 0x8, addend: 0x0, symName: __ZNSt3__15queueI13travel_statusNS_5dequeIS1_NS_9allocatorIS1_EEEEE5frontB8ue170006Ev, symObjAddr: 0xCB4, symBinAddr: 0x1000019A0, symSize: 0x24 }
  - { offsetInCU: 0x148BE, offset: 0x148BE, size: 0x8, addend: 0x0, symName: __ZN13travel_statusC1ERKS_, symObjAddr: 0xCD8, symBinAddr: 0x1000019C4, symSize: 0x34 }
  - { offsetInCU: 0x148F3, offset: 0x148F3, size: 0x8, addend: 0x0, symName: __ZNSt3__15queueI13travel_statusNS_5dequeIS1_NS_9allocatorIS1_EEEEE3popB8ue170006Ev, symObjAddr: 0xD0C, symBinAddr: 0x1000019F8, symSize: 0x24 }
  - { offsetInCU: 0x14919, offset: 0x14919, size: 0x8, addend: 0x0, symName: __ZNSt3__16vectorINS0_IiNS_9allocatorIiEEEENS1_IS3_EEEixB8ue170006Em, symObjAddr: 0xD30, symBinAddr: 0x100001A1C, symSize: 0x2C }
  - { offsetInCU: 0x14950, offset: 0x14950, size: 0x8, addend: 0x0, symName: __ZNKSt3__115__bit_referenceINS_6vectorIbNS_9allocatorIbEEEELb1EEcvbB8ue170006Ev, symObjAddr: 0xD5C, symBinAddr: 0x100001A48, symSize: 0x2C }
  - { offsetInCU: 0x14976, offset: 0x14976, size: 0x8, addend: 0x0, symName: __ZNSt3__16vectorIiNS_9allocatorIiEEEaSB8ue170006ERKS3_, symObjAddr: 0xD88, symBinAddr: 0x100001A74, symSize: 0x68 }
  - { offsetInCU: 0x149AD, offset: 0x149AD, size: 0x8, addend: 0x0, symName: __ZN13travel_statusD1Ev, symObjAddr: 0xDF0, symBinAddr: 0x100001ADC, symSize: 0x2C }
  - { offsetInCU: 0x149D9, offset: 0x149D9, size: 0x8, addend: 0x0, symName: __ZNSt3__15queueI13travel_statusNS_5dequeIS1_NS_9allocatorIS1_EEEEED1Ev, symObjAddr: 0xE1C, symBinAddr: 0x100001B08, symSize: 0x2C }
  - { offsetInCU: 0x14A06, offset: 0x14A06, size: 0x8, addend: 0x0, symName: _main, symObjAddr: 0xE48, symBinAddr: 0x100001B34, symSize: 0x22C }
  - { offsetInCU: 0x14AB1, offset: 0x14AB1, size: 0x8, addend: 0x0, symName: __ZNSt3__16vectorIiNS_9allocatorIiEEE6resizeEmRKi, symObjAddr: 0x1074, symBinAddr: 0x100001D60, symSize: 0x9C }
  - { offsetInCU: 0x14B06, offset: 0x14B06, size: 0x8, addend: 0x0, symName: __ZNSt3__16vectorINS0_IiNS_9allocatorIiEEEENS1_IS3_EEE6resizeEmRKS3_, symObjAddr: 0x1110, symBinAddr: 0x100001DFC, symSize: 0xA4 }
  - { offsetInCU: 0x14B5B, offset: 0x14B5B, size: 0x8, addend: 0x0, symName: __ZNSt3__16vectorIiNS_9allocatorIiEEEC1EmRKi, symObjAddr: 0x11B4, symBinAddr: 0x100001EA0, symSize: 0x3C }
  - { offsetInCU: 0x14BA5, offset: 0x14BA5, size: 0x8, addend: 0x0, symName: __ZNSt3__16vectorIbNS_9allocatorIbEEE6resizeEmb, symObjAddr: 0x11F0, symBinAddr: 0x100001EDC, symSize: 0x220 }
  - { offsetInCU: 0x14CF7, offset: 0x14CF7, size: 0x8, addend: 0x0, symName: __ZNSt3__113basic_ostreamIcNS_11char_traitsIcEEElsB8ue170006EPFRS3_S4_E, symObjAddr: 0x1410, symBinAddr: 0x1000020FC, symSize: 0x2C }
  - { offsetInCU: 0x14D35, offset: 0x14D35, size: 0x8, addend: 0x0, symName: __ZNKSt3__16__lessIvvEclB8ue170006IiiEEbRKT_RKT0_, symObjAddr: 0x14E8, symBinAddr: 0x1000021D4, symSize: 0x34 }
  - { offsetInCU: 0x14D89, offset: 0x14D89, size: 0x8, addend: 0x0, symName: __ZNSt3__111__wrap_iterIPiEpLB8ue170006El, symObjAddr: 0x151C, symBinAddr: 0x100002208, symSize: 0x28 }
  - { offsetInCU: 0x14DBD, offset: 0x14DBD, size: 0x8, addend: 0x0, symName: __ZN13travel_statusC2Ev, symObjAddr: 0x1544, symBinAddr: 0x100002230, symSize: 0x3C }
  - { offsetInCU: 0x14DE9, offset: 0x14DE9, size: 0x8, addend: 0x0, symName: __ZN13travel_statusC2ERKS_, symObjAddr: 0x1580, symBinAddr: 0x10000226C, symSize: 0x88 }
  - { offsetInCU: 0x14E1E, offset: 0x14E1E, size: 0x8, addend: 0x0, symName: __ZN13travel_statusD2Ev, symObjAddr: 0x1608, symBinAddr: 0x1000022F4, symSize: 0x3C }
  - { offsetInCU: 0x14E4A, offset: 0x14E4A, size: 0x8, addend: 0x0, symName: __ZNSt3__15queueI13travel_statusNS_5dequeIS1_NS_9allocatorIS1_EEEEED2Ev, symObjAddr: 0x1644, symBinAddr: 0x100002330, symSize: 0x2C }
  - { offsetInCU: 0x14E77, offset: 0x14E77, size: 0x8, addend: 0x0, symName: __ZNSt3__15dequeI13travel_statusNS_9allocatorIS1_EEED1B8ue170006Ev, symObjAddr: 0x1670, symBinAddr: 0x10000235C, symSize: 0x2C }
  - { offsetInCU: 0x14EA1, offset: 0x14EA1, size: 0x8, addend: 0x0, symName: __ZNSt3__15dequeI13travel_statusNS_9allocatorIS1_EEED2B8ue170006Ev, symObjAddr: 0x169C, symBinAddr: 0x100002388, symSize: 0xA4 }
  - { offsetInCU: 0x14EF7, offset: 0x14EF7, size: 0x8, addend: 0x0, symName: __ZNSt3__15dequeI13travel_statusNS_9allocatorIS1_EEE5clearEv, symObjAddr: 0x1740, symBinAddr: 0x10000242C, symSize: 0x194 }
  - { offsetInCU: 0x14F53, offset: 0x14F53, size: 0x8, addend: 0x0, symName: __ZNKSt3__15dequeI13travel_statusNS_9allocatorIS1_EEE17__annotate_deleteB8ue170006Ev, symObjAddr: 0x18D4, symBinAddr: 0x1000025C0, symSize: 0xEC }
  - { offsetInCU: 0x14F96, offset: 0x14F96, size: 0x8, addend: 0x0, symName: __ZNSt3__114__split_bufferIP13travel_statusNS_9allocatorIS2_EEE5beginB8ue170006Ev, symObjAddr: 0x19C0, symBinAddr: 0x1000026AC, symSize: 0x18 }
  - { offsetInCU: 0x14FBC, offset: 0x14FBC, size: 0x8, addend: 0x0, symName: __ZNSt3__114__split_bufferIP13travel_statusNS_9allocatorIS2_EEE3endB8ue170006Ev, symObjAddr: 0x19D8, symBinAddr: 0x1000026C4, symSize: 0x18 }
  - { offsetInCU: 0x14FE2, offset: 0x14FE2, size: 0x8, addend: 0x0, symName: __ZNSt3__116allocator_traitsINS_9allocatorI13travel_statusEEE10deallocateB8ue170006ERS3_PS2_m, symObjAddr: 0x19F0, symBinAddr: 0x1000026DC, symSize: 0x34 }
  - { offsetInCU: 0x15024, offset: 0x15024, size: 0x8, addend: 0x0, symName: __ZNSt3__15dequeI13travel_statusNS_9allocatorIS1_EEE7__allocB8ue170006Ev, symObjAddr: 0x1A24, symBinAddr: 0x100002710, symSize: 0x28 }
  - { offsetInCU: 0x1504A, offset: 0x1504A, size: 0x8, addend: 0x0, symName: __ZNSt3__114__split_bufferIP13travel_statusNS_9allocatorIS2_EEED1Ev, symObjAddr: 0x1A4C, symBinAddr: 0x100002738, symSize: 0x2C }
  - { offsetInCU: 0x15076, offset: 0x15076, size: 0x8, addend: 0x0, symName: __ZNSt3__15dequeI13travel_statusNS_9allocatorIS1_EEE5beginB8ue170006Ev, symObjAddr: 0x1A78, symBinAddr: 0x100002764, symSize: 0xC0 }
  - { offsetInCU: 0x150AB, offset: 0x150AB, size: 0x8, addend: 0x0, symName: __ZNSt3__15dequeI13travel_statusNS_9allocatorIS1_EEE3endB8ue170006Ev, symObjAddr: 0x1B38, symBinAddr: 0x100002824, symSize: 0xC4 }
  - { offsetInCU: 0x150EF, offset: 0x150EF, size: 0x8, addend: 0x0, symName: __ZNSt3__116allocator_traitsINS_9allocatorI13travel_statusEEE7destroyB8ue170006IS2_vEEvRS3_PT_, symObjAddr: 0x1C3C, symBinAddr: 0x100002928, symSize: 0x2C }
  - { offsetInCU: 0x1512C, offset: 0x1512C, size: 0x8, addend: 0x0, symName: __ZNKSt3__116__deque_iteratorI13travel_statusPS1_RS1_PS2_lLl73EEdeB8ue170006Ev, symObjAddr: 0x1C68, symBinAddr: 0x100002954, symSize: 0x18 }
  - { offsetInCU: 0x15152, offset: 0x15152, size: 0x8, addend: 0x0, symName: __ZNSt3__116__deque_iteratorI13travel_statusPS1_RS1_PS2_lLl73EEppB8ue170006Ev, symObjAddr: 0x1C80, symBinAddr: 0x10000296C, symSize: 0x70 }
  - { offsetInCU: 0x15178, offset: 0x15178, size: 0x8, addend: 0x0, symName: __ZNSt3__15dequeI13travel_statusNS_9allocatorIS1_EEE6__sizeB8ue170006Ev, symObjAddr: 0x1CF0, symBinAddr: 0x1000029DC, symSize: 0x28 }
  - { offsetInCU: 0x1519E, offset: 0x1519E, size: 0x8, addend: 0x0, symName: __ZNKSt3__114__split_bufferIP13travel_statusNS_9allocatorIS2_EEE4sizeB8ue170006Ev, symObjAddr: 0x1D18, symBinAddr: 0x100002A04, symSize: 0x28 }
  - { offsetInCU: 0x151C4, offset: 0x151C4, size: 0x8, addend: 0x0, symName: __ZNSt3__114__split_bufferIP13travel_statusNS_9allocatorIS2_EEE5frontB8ue170006Ev, symObjAddr: 0x1D40, symBinAddr: 0x100002A2C, symSize: 0x18 }
  - { offsetInCU: 0x151EA, offset: 0x151EA, size: 0x8, addend: 0x0, symName: __ZNSt3__114__split_bufferIP13travel_statusNS_9allocatorIS2_EEE9pop_frontB8ue170006Ev, symObjAddr: 0x1D58, symBinAddr: 0x100002A44, symSize: 0x2C }
  - { offsetInCU: 0x15210, offset: 0x15210, size: 0x8, addend: 0x0, symName: __ZNKSt3__15dequeI13travel_statusNS_9allocatorIS1_EEE14__annotate_newB8ue170006Em, symObjAddr: 0x1D84, symBinAddr: 0x100002A70, symSize: 0xC0 }
  - { offsetInCU: 0x15245, offset: 0x15245, size: 0x8, addend: 0x0, symName: __ZNKSt3__114__split_bufferIP13travel_statusNS_9allocatorIS2_EEE5emptyB8ue170006Ev, symObjAddr: 0x1E44, symBinAddr: 0x100002B30, symSize: 0x28 }
  - { offsetInCU: 0x1526B, offset: 0x1526B, size: 0x8, addend: 0x0, symName: __ZNSt3__116__deque_iteratorI13travel_statusPS1_RS1_PS2_lLl73EEC1B8ue170006ES4_S2_, symObjAddr: 0x1E6C, symBinAddr: 0x100002B58, symSize: 0x3C }
  - { offsetInCU: 0x152B3, offset: 0x152B3, size: 0x8, addend: 0x0, symName: __ZNSt3__116__deque_iteratorI13travel_statusPS1_RS1_PS2_lLl73EEC2B8ue170006ES4_S2_, symObjAddr: 0x1EA8, symBinAddr: 0x100002B94, symSize: 0x2C }
  - { offsetInCU: 0x152FB, offset: 0x152FB, size: 0x8, addend: 0x0, symName: __ZNKSt3__15dequeI13travel_statusNS_9allocatorIS1_EEE4sizeB8ue170006Ev, symObjAddr: 0x1ED4, symBinAddr: 0x100002BC0, symSize: 0x28 }
  - { offsetInCU: 0x15321, offset: 0x15321, size: 0x8, addend: 0x0, symName: __ZNKSt3__15dequeI13travel_statusNS_9allocatorIS1_EEE6__sizeB8ue170006Ev, symObjAddr: 0x1EFC, symBinAddr: 0x100002BE8, symSize: 0x28 }
  - { offsetInCU: 0x15347, offset: 0x15347, size: 0x8, addend: 0x0, symName: __ZNKSt3__117__compressed_pairImNS_9allocatorI13travel_statusEEE5firstB8ue170006Ev, symObjAddr: 0x1F24, symBinAddr: 0x100002C10, symSize: 0x24 }
  - { offsetInCU: 0x1536D, offset: 0x1536D, size: 0x8, addend: 0x0, symName: __ZNKSt3__122__compressed_pair_elemImLi0ELb0EE5__getB8ue170006Ev, symObjAddr: 0x1F48, symBinAddr: 0x100002C34, symSize: 0x14 }
  - { offsetInCU: 0x15393, offset: 0x15393, size: 0x8, addend: 0x0, symName: __ZNSt3__19allocatorI13travel_statusE7destroyB8ue170006EPS1_, symObjAddr: 0x1F8C, symBinAddr: 0x100002C78, symSize: 0x28 }
  - { offsetInCU: 0x153C7, offset: 0x153C7, size: 0x8, addend: 0x0, symName: __ZNSt3__117__compressed_pairImNS_9allocatorI13travel_statusEEE5firstB8ue170006Ev, symObjAddr: 0x1FB4, symBinAddr: 0x100002CA0, symSize: 0x24 }
  - { offsetInCU: 0x153ED, offset: 0x153ED, size: 0x8, addend: 0x0, symName: __ZNSt3__122__compressed_pair_elemImLi0ELb0EE5__getB8ue170006Ev, symObjAddr: 0x1FD8, symBinAddr: 0x100002CC4, symSize: 0x14 }
  - { offsetInCU: 0x15413, offset: 0x15413, size: 0x8, addend: 0x0, symName: __ZNSt3__114__split_bufferIP13travel_statusNS_9allocatorIS2_EEE19__destruct_at_beginB8ue170006EPS2_, symObjAddr: 0x1FEC, symBinAddr: 0x100002CD8, symSize: 0x2C }
  - { offsetInCU: 0x15447, offset: 0x15447, size: 0x8, addend: 0x0, symName: __ZNSt3__114__split_bufferIP13travel_statusNS_9allocatorIS2_EEE19__destruct_at_beginEPS2_NS_17integral_constantIbLb1EEE, symObjAddr: 0x2018, symBinAddr: 0x100002D04, symSize: 0x20 }
  - { offsetInCU: 0x15487, offset: 0x15487, size: 0x8, addend: 0x0, symName: __ZNKSt3__15dequeI13travel_statusNS_9allocatorIS1_EEE18__annotate_from_toB8ue170006EmmNS4_22__asan_annotation_typeENS4_23__asan_annotation_placeE, symObjAddr: 0x2038, symBinAddr: 0x100002D24, symSize: 0x598 }
  - { offsetInCU: 0x15643, offset: 0x15643, size: 0x8, addend: 0x0, symName: __ZNKSt3__114__split_bufferIP13travel_statusNS_9allocatorIS2_EEE5beginB8ue170006Ev, symObjAddr: 0x25D0, symBinAddr: 0x1000032BC, symSize: 0x18 }
  - { offsetInCU: 0x15669, offset: 0x15669, size: 0x8, addend: 0x0, symName: __ZNKSt3__15dequeI13travel_statusNS_9allocatorIS1_EEE5emptyB8ue170006Ev, symObjAddr: 0x25E8, symBinAddr: 0x1000032D4, symSize: 0x30 }
  - { offsetInCU: 0x1568F, offset: 0x1568F, size: 0x8, addend: 0x0, symName: __ZNKSt3__15dequeI13travel_statusNS_9allocatorIS1_EEE44__annotate_double_ended_contiguous_containerB8ue170006EPKvS6_S6_S6_S6_S6_, symObjAddr: 0x262C, symBinAddr: 0x100003318, symSize: 0x28 }
  - { offsetInCU: 0x156F7, offset: 0x156F7, size: 0x8, addend: 0x0, symName: __ZNKSt3__15dequeI13travel_statusNS_9allocatorIS1_EEE22__annotate_whole_blockB8ue170006EmNS4_22__asan_annotation_typeE, symObjAddr: 0x2654, symBinAddr: 0x100003340, symSize: 0xAC }
  - { offsetInCU: 0x15768, offset: 0x15768, size: 0x8, addend: 0x0, symName: __ZNKSt3__15dequeI13travel_statusNS_9allocatorIS1_EEE23__annotate_poison_blockB8ue170006EPKvS6_, symObjAddr: 0x2700, symBinAddr: 0x1000033EC, symSize: 0x44 }
  - { offsetInCU: 0x157AC, offset: 0x157AC, size: 0x8, addend: 0x0, symName: __ZNSt3__19allocatorI13travel_statusE10deallocateB8ue170006EPS1_m, symObjAddr: 0x2744, symBinAddr: 0x100003430, symSize: 0x44 }
  - { offsetInCU: 0x157EE, offset: 0x157EE, size: 0x8, addend: 0x0, symName: __ZNSt3__117__compressed_pairImNS_9allocatorI13travel_statusEEE6secondB8ue170006Ev, symObjAddr: 0x2804, symBinAddr: 0x1000034F0, symSize: 0x24 }
  - { offsetInCU: 0x15814, offset: 0x15814, size: 0x8, addend: 0x0, symName: __ZNSt3__122__compressed_pair_elemINS_9allocatorI13travel_statusEELi1ELb1EE5__getB8ue170006Ev, symObjAddr: 0x2828, symBinAddr: 0x100003514, symSize: 0x14 }
  - { offsetInCU: 0x1583A, offset: 0x1583A, size: 0x8, addend: 0x0, symName: __ZNSt3__114__split_bufferIP13travel_statusNS_9allocatorIS2_EEED2Ev, symObjAddr: 0x283C, symBinAddr: 0x100003528, symSize: 0x8C }
  - { offsetInCU: 0x15866, offset: 0x15866, size: 0x8, addend: 0x0, symName: __ZNSt3__114__split_bufferIP13travel_statusNS_9allocatorIS2_EEE5clearB8ue170006Ev, symObjAddr: 0x28C8, symBinAddr: 0x1000035B4, symSize: 0x28 }
  - { offsetInCU: 0x1588C, offset: 0x1588C, size: 0x8, addend: 0x0, symName: __ZNSt3__116allocator_traitsINS_9allocatorIP13travel_statusEEE10deallocateB8ue170006ERS4_PS3_m, symObjAddr: 0x28F0, symBinAddr: 0x1000035DC, symSize: 0x34 }
  - { offsetInCU: 0x158CE, offset: 0x158CE, size: 0x8, addend: 0x0, symName: __ZNSt3__114__split_bufferIP13travel_statusNS_9allocatorIS2_EEE7__allocB8ue170006Ev, symObjAddr: 0x2924, symBinAddr: 0x100003610, symSize: 0x28 }
  - { offsetInCU: 0x158F4, offset: 0x158F4, size: 0x8, addend: 0x0, symName: __ZNKSt3__114__split_bufferIP13travel_statusNS_9allocatorIS2_EEE8capacityB8ue170006Ev, symObjAddr: 0x294C, symBinAddr: 0x100003638, symSize: 0x40 }
  - { offsetInCU: 0x1591A, offset: 0x1591A, size: 0x8, addend: 0x0, symName: __ZNSt3__114__split_bufferIP13travel_statusNS_9allocatorIS2_EEE17__destruct_at_endB8ue170006EPS2_, symObjAddr: 0x298C, symBinAddr: 0x100003678, symSize: 0x2C }
  - { offsetInCU: 0x1594E, offset: 0x1594E, size: 0x8, addend: 0x0, symName: __ZNSt3__114__split_bufferIP13travel_statusNS_9allocatorIS2_EEE17__destruct_at_endB8ue170006EPS2_NS_17integral_constantIbLb0EEE, symObjAddr: 0x29B8, symBinAddr: 0x1000036A4, symSize: 0x80 }
  - { offsetInCU: 0x1598E, offset: 0x1598E, size: 0x8, addend: 0x0, symName: __ZNSt3__116allocator_traitsINS_9allocatorIP13travel_statusEEE7destroyB8ue170006IS3_vEEvRS4_PT_, symObjAddr: 0x2A38, symBinAddr: 0x100003724, symSize: 0x2C }
  - { offsetInCU: 0x159CB, offset: 0x159CB, size: 0x8, addend: 0x0, symName: __ZNSt3__19allocatorIP13travel_statusE7destroyB8ue170006EPS2_, symObjAddr: 0x2A78, symBinAddr: 0x100003764, symSize: 0x14 }
  - { offsetInCU: 0x159FF, offset: 0x159FF, size: 0x8, addend: 0x0, symName: __ZNSt3__19allocatorIP13travel_statusE10deallocateB8ue170006EPS2_m, symObjAddr: 0x2A8C, symBinAddr: 0x100003778, symSize: 0x40 }
  - { offsetInCU: 0x15A41, offset: 0x15A41, size: 0x8, addend: 0x0, symName: __ZNSt3__117__compressed_pairIPP13travel_statusNS_9allocatorIS2_EEE6secondB8ue170006Ev, symObjAddr: 0x2ACC, symBinAddr: 0x1000037B8, symSize: 0x24 }
  - { offsetInCU: 0x15A67, offset: 0x15A67, size: 0x8, addend: 0x0, symName: __ZNSt3__122__compressed_pair_elemINS_9allocatorIP13travel_statusEELi1ELb1EE5__getB8ue170006Ev, symObjAddr: 0x2AF0, symBinAddr: 0x1000037DC, symSize: 0x14 }
  - { offsetInCU: 0x15A8D, offset: 0x15A8D, size: 0x8, addend: 0x0, symName: __ZNKSt3__114__split_bufferIP13travel_statusNS_9allocatorIS2_EEE9__end_capB8ue170006Ev, symObjAddr: 0x2B04, symBinAddr: 0x1000037F0, symSize: 0x28 }
  - { offsetInCU: 0x15AB3, offset: 0x15AB3, size: 0x8, addend: 0x0, symName: __ZNKSt3__117__compressed_pairIPP13travel_statusNS_9allocatorIS2_EEE5firstB8ue170006Ev, symObjAddr: 0x2B2C, symBinAddr: 0x100003818, symSize: 0x24 }
  - { offsetInCU: 0x15AD9, offset: 0x15AD9, size: 0x8, addend: 0x0, symName: __ZNKSt3__122__compressed_pair_elemIPP13travel_statusLi0ELb0EE5__getB8ue170006Ev, symObjAddr: 0x2B50, symBinAddr: 0x10000383C, symSize: 0x14 }
  - { offsetInCU: 0x15AFF, offset: 0x15AFF, size: 0x8, addend: 0x0, symName: __ZNSt3__16vectorIiNS_9allocatorIiEEEC2B8ue170006Ev, symObjAddr: 0x2B64, symBinAddr: 0x100003850, symSize: 0x4C }
  - { offsetInCU: 0x15B33, offset: 0x15B33, size: 0x8, addend: 0x0, symName: __ZNSt3__117__compressed_pairIPiNS_9allocatorIiEEEC1B8ue170006IDnNS_18__default_init_tagEEEOT_OT0_, symObjAddr: 0x2BB0, symBinAddr: 0x10000389C, symSize: 0x3C }
  - { offsetInCU: 0x15B8B, offset: 0x15B8B, size: 0x8, addend: 0x0, symName: __ZNSt3__117__compressed_pairIPiNS_9allocatorIiEEEC2B8ue170006IDnNS_18__default_init_tagEEEOT_OT0_, symObjAddr: 0x2BEC, symBinAddr: 0x1000038D8, symSize: 0x40 }
  - { offsetInCU: 0x15BE3, offset: 0x15BE3, size: 0x8, addend: 0x0, symName: __ZNSt3__122__compressed_pair_elemIPiLi0ELb0EEC2B8ue170006IDnvEEOT_, symObjAddr: 0x2C2C, symBinAddr: 0x100003918, symSize: 0x1C }
  - { offsetInCU: 0x15C25, offset: 0x15C25, size: 0x8, addend: 0x0, symName: __ZNSt3__122__compressed_pair_elemINS_9allocatorIiEELi1ELb1EEC2B8ue170006ENS_18__default_init_tagE, symObjAddr: 0x2C48, symBinAddr: 0x100003934, symSize: 0x2C }
  - { offsetInCU: 0x15C59, offset: 0x15C59, size: 0x8, addend: 0x0, symName: __ZNSt3__19allocatorIiEC2B8ue170006Ev, symObjAddr: 0x2C74, symBinAddr: 0x100003960, symSize: 0x2C }
  - { offsetInCU: 0x15C83, offset: 0x15C83, size: 0x8, addend: 0x0, symName: __ZNSt3__116__non_trivial_ifILb1ENS_9allocatorIiEEEC2B8ue170006Ev, symObjAddr: 0x2CA0, symBinAddr: 0x10000398C, symSize: 0x14 }
  - { offsetInCU: 0x15CAD, offset: 0x15CAD, size: 0x8, addend: 0x0, symName: __ZNSt3__16vectorIiNS_9allocatorIiEEED2B8ue170006Ev, symObjAddr: 0x2CB4, symBinAddr: 0x1000039A0, symSize: 0x44 }
  - { offsetInCU: 0x15CD7, offset: 0x15CD7, size: 0x8, addend: 0x0, symName: __ZNSt3__16vectorIiNS_9allocatorIiEEE16__destroy_vectorC1B8ue170006ERS3_, symObjAddr: 0x2CF8, symBinAddr: 0x1000039E4, symSize: 0x34 }
  - { offsetInCU: 0x15D10, offset: 0x15D10, size: 0x8, addend: 0x0, symName: __ZNSt3__16vectorIiNS_9allocatorIiEEE16__destroy_vectorclB8ue170006Ev, symObjAddr: 0x2D2C, symBinAddr: 0x100003A18, symSize: 0x90 }
  - { offsetInCU: 0x15D36, offset: 0x15D36, size: 0x8, addend: 0x0, symName: __ZNSt3__16vectorIiNS_9allocatorIiEEE16__destroy_vectorC2B8ue170006ERS3_, symObjAddr: 0x2DBC, symBinAddr: 0x100003AA8, symSize: 0x20 }
  - { offsetInCU: 0x15D6F, offset: 0x15D6F, size: 0x8, addend: 0x0, symName: __ZNSt3__16vectorIiNS_9allocatorIiEEE7__clearB8ue170006Ev, symObjAddr: 0x2DDC, symBinAddr: 0x100003AC8, symSize: 0x28 }
  - { offsetInCU: 0x15D95, offset: 0x15D95, size: 0x8, addend: 0x0, symName: __ZNKSt3__16vectorIiNS_9allocatorIiEEE17__annotate_deleteB8ue170006Ev, symObjAddr: 0x2E04, symBinAddr: 0x100003AF0, symSize: 0xB8 }
  - { offsetInCU: 0x15DBB, offset: 0x15DBB, size: 0x8, addend: 0x0, symName: __ZNSt3__116allocator_traitsINS_9allocatorIiEEE10deallocateB8ue170006ERS2_Pim, symObjAddr: 0x2EBC, symBinAddr: 0x100003BA8, symSize: 0x34 }
  - { offsetInCU: 0x15DFD, offset: 0x15DFD, size: 0x8, addend: 0x0, symName: __ZNSt3__16vectorIiNS_9allocatorIiEEE7__allocB8ue170006Ev, symObjAddr: 0x2EF0, symBinAddr: 0x100003BDC, symSize: 0x28 }
  - { offsetInCU: 0x15E23, offset: 0x15E23, size: 0x8, addend: 0x0, symName: __ZNKSt3__16vectorIiNS_9allocatorIiEEE8capacityB8ue170006Ev, symObjAddr: 0x2F18, symBinAddr: 0x100003C04, symSize: 0x40 }
  - { offsetInCU: 0x15E49, offset: 0x15E49, size: 0x8, addend: 0x0, symName: __ZNSt3__16vectorIiNS_9allocatorIiEEE22__base_destruct_at_endB8ue170006EPi, symObjAddr: 0x2F58, symBinAddr: 0x100003C44, symSize: 0x8C }
  - { offsetInCU: 0x15E8D, offset: 0x15E8D, size: 0x8, addend: 0x0, symName: __ZNSt3__116allocator_traitsINS_9allocatorIiEEE7destroyB8ue170006IivEEvRS2_PT_, symObjAddr: 0x2FE4, symBinAddr: 0x100003CD0, symSize: 0x2C }
  - { offsetInCU: 0x15ECA, offset: 0x15ECA, size: 0x8, addend: 0x0, symName: __ZNSt3__19allocatorIiE7destroyB8ue170006EPi, symObjAddr: 0x3024, symBinAddr: 0x100003D10, symSize: 0x14 }
  - { offsetInCU: 0x15EFE, offset: 0x15EFE, size: 0x8, addend: 0x0, symName: __ZNKSt3__16vectorIiNS_9allocatorIiEEE31__annotate_contiguous_containerB8ue170006EPKvS5_S5_S5_, symObjAddr: 0x3038, symBinAddr: 0x100003D24, symSize: 0x20 }
  - { offsetInCU: 0x15F50, offset: 0x15F50, size: 0x8, addend: 0x0, symName: __ZNKSt3__16vectorIiNS_9allocatorIiEEE4dataB8ue170006Ev, symObjAddr: 0x3058, symBinAddr: 0x100003D44, symSize: 0x28 }
  - { offsetInCU: 0x15F76, offset: 0x15F76, size: 0x8, addend: 0x0, symName: __ZNSt3__19allocatorIiE10deallocateB8ue170006EPim, symObjAddr: 0x3080, symBinAddr: 0x100003D6C, symSize: 0x40 }
  - { offsetInCU: 0x15FB8, offset: 0x15FB8, size: 0x8, addend: 0x0, symName: __ZNSt3__117__compressed_pairIPiNS_9allocatorIiEEE6secondB8ue170006Ev, symObjAddr: 0x30C0, symBinAddr: 0x100003DAC, symSize: 0x24 }
  - { offsetInCU: 0x15FDE, offset: 0x15FDE, size: 0x8, addend: 0x0, symName: __ZNSt3__122__compressed_pair_elemINS_9allocatorIiEELi1ELb1EE5__getB8ue170006Ev, symObjAddr: 0x30E4, symBinAddr: 0x100003DD0, symSize: 0x14 }
  - { offsetInCU: 0x16004, offset: 0x16004, size: 0x8, addend: 0x0, symName: __ZNKSt3__16vectorIiNS_9allocatorIiEEE9__end_capB8ue170006Ev, symObjAddr: 0x30F8, symBinAddr: 0x100003DE4, symSize: 0x28 }
  - { offsetInCU: 0x1602A, offset: 0x1602A, size: 0x8, addend: 0x0, symName: __ZNKSt3__117__compressed_pairIPiNS_9allocatorIiEEE5firstB8ue170006Ev, symObjAddr: 0x3120, symBinAddr: 0x100003E0C, symSize: 0x24 }
  - { offsetInCU: 0x16050, offset: 0x16050, size: 0x8, addend: 0x0, symName: __ZNKSt3__122__compressed_pair_elemIPiLi0ELb0EE5__getB8ue170006Ev, symObjAddr: 0x3144, symBinAddr: 0x100003E30, symSize: 0x14 }
  - { offsetInCU: 0x16076, offset: 0x16076, size: 0x8, addend: 0x0, symName: __ZNSt3__16vectorINS0_IiNS_9allocatorIiEEEENS1_IS3_EEEC2B8ue170006Ev, symObjAddr: 0x3158, symBinAddr: 0x100003E44, symSize: 0x4C }
  - { offsetInCU: 0x160A0, offset: 0x160A0, size: 0x8, addend: 0x0, symName: __ZNSt3__117__compressed_pairIPNS_6vectorIiNS_9allocatorIiEEEENS2_IS4_EEEC1B8ue170006IDnNS_18__default_init_tagEEEOT_OT0_, symObjAddr: 0x31A4, symBinAddr: 0x100003E90, symSize: 0x3C }
  - { offsetInCU: 0x160F8, offset: 0x160F8, size: 0x8, addend: 0x0, symName: __ZNSt3__117__compressed_pairIPNS_6vectorIiNS_9allocatorIiEEEENS2_IS4_EEEC2B8ue170006IDnNS_18__default_init_tagEEEOT_OT0_, symObjAddr: 0x31E0, symBinAddr: 0x100003ECC, symSize: 0x40 }
  - { offsetInCU: 0x16150, offset: 0x16150, size: 0x8, addend: 0x0, symName: __ZNSt3__122__compressed_pair_elemIPNS_6vectorIiNS_9allocatorIiEEEELi0ELb0EEC2B8ue170006IDnvEEOT_, symObjAddr: 0x3220, symBinAddr: 0x100003F0C, symSize: 0x1C }
  - { offsetInCU: 0x16192, offset: 0x16192, size: 0x8, addend: 0x0, symName: __ZNSt3__122__compressed_pair_elemINS_9allocatorINS_6vectorIiNS1_IiEEEEEELi1ELb1EEC2B8ue170006ENS_18__default_init_tagE, symObjAddr: 0x323C, symBinAddr: 0x100003F28, symSize: 0x2C }
  - { offsetInCU: 0x161C6, offset: 0x161C6, size: 0x8, addend: 0x0, symName: __ZNSt3__19allocatorINS_6vectorIiNS0_IiEEEEEC2B8ue170006Ev, symObjAddr: 0x3268, symBinAddr: 0x100003F54, symSize: 0x2C }
  - { offsetInCU: 0x161F0, offset: 0x161F0, size: 0x8, addend: 0x0, symName: __ZNSt3__116__non_trivial_ifILb1ENS_9allocatorINS_6vectorIiNS1_IiEEEEEEEC2B8ue170006Ev, symObjAddr: 0x3294, symBinAddr: 0x100003F80, symSize: 0x14 }
  - { offsetInCU: 0x1621A, offset: 0x1621A, size: 0x8, addend: 0x0, symName: __ZNSt3__16vectorINS0_IiNS_9allocatorIiEEEENS1_IS3_EEED2B8ue170006Ev, symObjAddr: 0x32A8, symBinAddr: 0x100003F94, symSize: 0x44 }
  - { offsetInCU: 0x16244, offset: 0x16244, size: 0x8, addend: 0x0, symName: __ZNSt3__16vectorINS0_IiNS_9allocatorIiEEEENS1_IS3_EEE16__destroy_vectorC1B8ue170006ERS5_, symObjAddr: 0x32EC, symBinAddr: 0x100003FD8, symSize: 0x34 }
  - { offsetInCU: 0x1627D, offset: 0x1627D, size: 0x8, addend: 0x0, symName: __ZNSt3__16vectorINS0_IiNS_9allocatorIiEEEENS1_IS3_EEE16__destroy_vectorclB8ue170006Ev, symObjAddr: 0x3320, symBinAddr: 0x10000400C, symSize: 0x90 }
  - { offsetInCU: 0x162A3, offset: 0x162A3, size: 0x8, addend: 0x0, symName: __ZNSt3__16vectorINS0_IiNS_9allocatorIiEEEENS1_IS3_EEE16__destroy_vectorC2B8ue170006ERS5_, symObjAddr: 0x33B0, symBinAddr: 0x10000409C, symSize: 0x20 }
  - { offsetInCU: 0x162DC, offset: 0x162DC, size: 0x8, addend: 0x0, symName: __ZNSt3__16vectorINS0_IiNS_9allocatorIiEEEENS1_IS3_EEE7__clearB8ue170006Ev, symObjAddr: 0x33D0, symBinAddr: 0x1000040BC, symSize: 0x28 }
  - { offsetInCU: 0x16302, offset: 0x16302, size: 0x8, addend: 0x0, symName: __ZNKSt3__16vectorINS0_IiNS_9allocatorIiEEEENS1_IS3_EEE17__annotate_deleteB8ue170006Ev, symObjAddr: 0x33F8, symBinAddr: 0x1000040E4, symSize: 0xD4 }
  - { offsetInCU: 0x16328, offset: 0x16328, size: 0x8, addend: 0x0, symName: __ZNSt3__116allocator_traitsINS_9allocatorINS_6vectorIiNS1_IiEEEEEEE10deallocateB8ue170006ERS5_PS4_m, symObjAddr: 0x34CC, symBinAddr: 0x1000041B8, symSize: 0x34 }
  - { offsetInCU: 0x1636A, offset: 0x1636A, size: 0x8, addend: 0x0, symName: __ZNSt3__16vectorINS0_IiNS_9allocatorIiEEEENS1_IS3_EEE7__allocB8ue170006Ev, symObjAddr: 0x3500, symBinAddr: 0x1000041EC, symSize: 0x28 }
  - { offsetInCU: 0x16390, offset: 0x16390, size: 0x8, addend: 0x0, symName: __ZNKSt3__16vectorINS0_IiNS_9allocatorIiEEEENS1_IS3_EEE8capacityB8ue170006Ev, symObjAddr: 0x3528, symBinAddr: 0x100004214, symSize: 0x40 }
  - { offsetInCU: 0x163B6, offset: 0x163B6, size: 0x8, addend: 0x0, symName: __ZNSt3__16vectorINS0_IiNS_9allocatorIiEEEENS1_IS3_EEE22__base_destruct_at_endB8ue170006EPS3_, symObjAddr: 0x3568, symBinAddr: 0x100004254, symSize: 0x8C }
  - { offsetInCU: 0x163FA, offset: 0x163FA, size: 0x8, addend: 0x0, symName: __ZNSt3__116allocator_traitsINS_9allocatorINS_6vectorIiNS1_IiEEEEEEE7destroyB8ue170006IS4_vEEvRS5_PT_, symObjAddr: 0x35F4, symBinAddr: 0x1000042E0, symSize: 0x2C }
  - { offsetInCU: 0x16437, offset: 0x16437, size: 0x8, addend: 0x0, symName: __ZNSt3__19allocatorINS_6vectorIiNS0_IiEEEEE7destroyB8ue170006EPS3_, symObjAddr: 0x3634, symBinAddr: 0x100004320, symSize: 0x28 }
  - { offsetInCU: 0x1646B, offset: 0x1646B, size: 0x8, addend: 0x0, symName: __ZNKSt3__16vectorINS0_IiNS_9allocatorIiEEEENS1_IS3_EEE31__annotate_contiguous_containerB8ue170006EPKvS7_S7_S7_, symObjAddr: 0x365C, symBinAddr: 0x100004348, symSize: 0x20 }
  - { offsetInCU: 0x164BD, offset: 0x164BD, size: 0x8, addend: 0x0, symName: __ZNKSt3__16vectorINS0_IiNS_9allocatorIiEEEENS1_IS3_EEE4dataB8ue170006Ev, symObjAddr: 0x367C, symBinAddr: 0x100004368, symSize: 0x28 }
  - { offsetInCU: 0x164E3, offset: 0x164E3, size: 0x8, addend: 0x0, symName: __ZNKSt3__16vectorINS0_IiNS_9allocatorIiEEEENS1_IS3_EEE4sizeB8ue170006Ev, symObjAddr: 0x36A4, symBinAddr: 0x100004390, symSize: 0x28 }
  - { offsetInCU: 0x16509, offset: 0x16509, size: 0x8, addend: 0x0, symName: __ZNSt3__19allocatorINS_6vectorIiNS0_IiEEEEE10deallocateB8ue170006EPS3_m, symObjAddr: 0x36CC, symBinAddr: 0x1000043B8, symSize: 0x44 }
  - { offsetInCU: 0x1654B, offset: 0x1654B, size: 0x8, addend: 0x0, symName: __ZNSt3__117__compressed_pairIPNS_6vectorIiNS_9allocatorIiEEEENS2_IS4_EEE6secondB8ue170006Ev, symObjAddr: 0x3710, symBinAddr: 0x1000043FC, symSize: 0x24 }
  - { offsetInCU: 0x16571, offset: 0x16571, size: 0x8, addend: 0x0, symName: __ZNSt3__122__compressed_pair_elemINS_9allocatorINS_6vectorIiNS1_IiEEEEEELi1ELb1EE5__getB8ue170006Ev, symObjAddr: 0x3734, symBinAddr: 0x100004420, symSize: 0x14 }
  - { offsetInCU: 0x16597, offset: 0x16597, size: 0x8, addend: 0x0, symName: __ZNKSt3__16vectorINS0_IiNS_9allocatorIiEEEENS1_IS3_EEE9__end_capB8ue170006Ev, symObjAddr: 0x3748, symBinAddr: 0x100004434, symSize: 0x28 }
  - { offsetInCU: 0x165BD, offset: 0x165BD, size: 0x8, addend: 0x0, symName: __ZNKSt3__117__compressed_pairIPNS_6vectorIiNS_9allocatorIiEEEENS2_IS4_EEE5firstB8ue170006Ev, symObjAddr: 0x3770, symBinAddr: 0x10000445C, symSize: 0x24 }
  - { offsetInCU: 0x165E3, offset: 0x165E3, size: 0x8, addend: 0x0, symName: __ZNKSt3__122__compressed_pair_elemIPNS_6vectorIiNS_9allocatorIiEEEELi0ELb0EE5__getB8ue170006Ev, symObjAddr: 0x3794, symBinAddr: 0x100004480, symSize: 0x14 }
  - { offsetInCU: 0x16609, offset: 0x16609, size: 0x8, addend: 0x0, symName: __ZNSt3__16vectorIbNS_9allocatorIbEEEC2B8ue170006Ev, symObjAddr: 0x37A8, symBinAddr: 0x100004494, symSize: 0x4C }
  - { offsetInCU: 0x1663A, offset: 0x1663A, size: 0x8, addend: 0x0, symName: __ZNSt3__117__compressed_pairImNS_9allocatorImEEEC1B8ue170006IiNS_18__default_init_tagEEEOT_OT0_, symObjAddr: 0x37F4, symBinAddr: 0x1000044E0, symSize: 0x3C }
  - { offsetInCU: 0x16692, offset: 0x16692, size: 0x8, addend: 0x0, symName: __ZNSt3__117__compressed_pairImNS_9allocatorImEEEC2B8ue170006IiNS_18__default_init_tagEEEOT_OT0_, symObjAddr: 0x3830, symBinAddr: 0x10000451C, symSize: 0x40 }
  - { offsetInCU: 0x166EA, offset: 0x166EA, size: 0x8, addend: 0x0, symName: __ZNSt3__122__compressed_pair_elemImLi0ELb0EEC2B8ue170006IivEEOT_, symObjAddr: 0x3870, symBinAddr: 0x10000455C, symSize: 0x24 }
  - { offsetInCU: 0x1672C, offset: 0x1672C, size: 0x8, addend: 0x0, symName: __ZNSt3__122__compressed_pair_elemINS_9allocatorImEELi1ELb1EEC2B8ue170006ENS_18__default_init_tagE, symObjAddr: 0x3894, symBinAddr: 0x100004580, symSize: 0x2C }
  - { offsetInCU: 0x16760, offset: 0x16760, size: 0x8, addend: 0x0, symName: __ZNSt3__19allocatorImEC2B8ue170006Ev, symObjAddr: 0x38C0, symBinAddr: 0x1000045AC, symSize: 0x2C }
  - { offsetInCU: 0x1678A, offset: 0x1678A, size: 0x8, addend: 0x0, symName: __ZNSt3__116__non_trivial_ifILb1ENS_9allocatorImEEEC2B8ue170006Ev, symObjAddr: 0x38EC, symBinAddr: 0x1000045D8, symSize: 0x14 }
  - { offsetInCU: 0x167B4, offset: 0x167B4, size: 0x8, addend: 0x0, symName: __ZNSt3__16vectorIbNS_9allocatorIbEEED2B8ue170006Ev, symObjAddr: 0x3900, symBinAddr: 0x1000045EC, symSize: 0x44 }
  - { offsetInCU: 0x167DE, offset: 0x167DE, size: 0x8, addend: 0x0, symName: __ZNSt3__16vectorIbNS_9allocatorIbEEE16__destroy_vectorC1B8ue170006ERS3_, symObjAddr: 0x3944, symBinAddr: 0x100004630, symSize: 0x34 }
  - { offsetInCU: 0x16817, offset: 0x16817, size: 0x8, addend: 0x0, symName: __ZNSt3__16vectorIbNS_9allocatorIbEEE16__destroy_vectorclB8ue170006Ev, symObjAddr: 0x3978, symBinAddr: 0x100004664, symSize: 0x7C }
  - { offsetInCU: 0x1683D, offset: 0x1683D, size: 0x8, addend: 0x0, symName: __ZNSt3__16vectorIbNS_9allocatorIbEEE16__destroy_vectorC2B8ue170006ERS3_, symObjAddr: 0x39F4, symBinAddr: 0x1000046E0, symSize: 0x20 }
  - { offsetInCU: 0x16876, offset: 0x16876, size: 0x8, addend: 0x0, symName: __ZNSt3__116allocator_traitsINS_9allocatorImEEE10deallocateB8ue170006ERS2_Pmm, symObjAddr: 0x3A14, symBinAddr: 0x100004700, symSize: 0x34 }
  - { offsetInCU: 0x168B8, offset: 0x168B8, size: 0x8, addend: 0x0, symName: __ZNSt3__16vectorIbNS_9allocatorIbEEE7__allocB8ue170006Ev, symObjAddr: 0x3A48, symBinAddr: 0x100004734, symSize: 0x28 }
  - { offsetInCU: 0x168DE, offset: 0x168DE, size: 0x8, addend: 0x0, symName: __ZNSt3__16vectorIbNS_9allocatorIbEEE5__capB8ue170006Ev, symObjAddr: 0x3A70, symBinAddr: 0x10000475C, symSize: 0x28 }
  - { offsetInCU: 0x16904, offset: 0x16904, size: 0x8, addend: 0x0, symName: __ZNSt3__19allocatorImE10deallocateB8ue170006EPmm, symObjAddr: 0x3A98, symBinAddr: 0x100004784, symSize: 0x40 }
  - { offsetInCU: 0x16946, offset: 0x16946, size: 0x8, addend: 0x0, symName: __ZNSt3__117__compressed_pairImNS_9allocatorImEEE6secondB8ue170006Ev, symObjAddr: 0x3AD8, symBinAddr: 0x1000047C4, symSize: 0x24 }
  - { offsetInCU: 0x1696C, offset: 0x1696C, size: 0x8, addend: 0x0, symName: __ZNSt3__122__compressed_pair_elemINS_9allocatorImEELi1ELb1EE5__getB8ue170006Ev, symObjAddr: 0x3AFC, symBinAddr: 0x1000047E8, symSize: 0x14 }
  - { offsetInCU: 0x16992, offset: 0x16992, size: 0x8, addend: 0x0, symName: __ZNSt3__117__compressed_pairImNS_9allocatorImEEE5firstB8ue170006Ev, symObjAddr: 0x3B10, symBinAddr: 0x1000047FC, symSize: 0x24 }
  - { offsetInCU: 0x169B8, offset: 0x169B8, size: 0x8, addend: 0x0, symName: __ZNSt3__16vectorIiNS_9allocatorIiEEE11__make_iterB8ue170006EPi, symObjAddr: 0x3B34, symBinAddr: 0x100004820, symSize: 0x30 }
  - { offsetInCU: 0x169ED, offset: 0x169ED, size: 0x8, addend: 0x0, symName: __ZNSt3__111__wrap_iterIPiEC1B8ue170006ES1_, symObjAddr: 0x3B64, symBinAddr: 0x100004850, symSize: 0x34 }
  - { offsetInCU: 0x16A25, offset: 0x16A25, size: 0x8, addend: 0x0, symName: __ZNSt3__111__wrap_iterIPiEC2B8ue170006ES1_, symObjAddr: 0x3B98, symBinAddr: 0x100004884, symSize: 0x20 }
  - { offsetInCU: 0x16A5D, offset: 0x16A5D, size: 0x8, addend: 0x0, symName: __ZNSt3__16vectorIiNS_9allocatorIiEEE18__assign_with_sizeB8ue170006INS_11__wrap_iterIPiEES7_EEvT_T0_l, symObjAddr: 0x3BB8, symBinAddr: 0x1000048A4, symSize: 0x194 }
  - { offsetInCU: 0x16B0E, offset: 0x16B0E, size: 0x8, addend: 0x0, symName: __ZNSt3__16vectorIiNS_9allocatorIiEEE18__construct_at_endINS_11__wrap_iterIPiEES7_EEvT_T0_m, symObjAddr: 0x3E14, symBinAddr: 0x100004B00, symSize: 0x9C }
  - { offsetInCU: 0x16B84, offset: 0x16B84, size: 0x8, addend: 0x0, symName: __ZNSt3__16vectorIiNS_9allocatorIiEEE17__destruct_at_endB8ue170006EPi, symObjAddr: 0x3F04, symBinAddr: 0x100004BF0, symSize: 0x4C }
  - { offsetInCU: 0x16BC8, offset: 0x16BC8, size: 0x8, addend: 0x0, symName: __ZNSt3__16vectorIiNS_9allocatorIiEEE13__vdeallocateEv, symObjAddr: 0x3F50, symBinAddr: 0x100004C3C, symSize: 0x94 }
  - { offsetInCU: 0x16BF0, offset: 0x16BF0, size: 0x8, addend: 0x0, symName: __ZNSt3__16vectorIiNS_9allocatorIiEEE11__vallocateB8ue170006Em, symObjAddr: 0x3FE4, symBinAddr: 0x100004CD0, symSize: 0xAC }
  - { offsetInCU: 0x16C34, offset: 0x16C34, size: 0x8, addend: 0x0, symName: __ZNKSt3__16vectorIiNS_9allocatorIiEEE11__recommendB8ue170006Em, symObjAddr: 0x4090, symBinAddr: 0x100004D7C, symSize: 0xB4 }
  - { offsetInCU: 0x16CA2, offset: 0x16CA2, size: 0x8, addend: 0x0, symName: __ZNSt3__16vectorIiNS_9allocatorIiEEE21_ConstructTransactionC1B8ue170006ERS3_m, symObjAddr: 0x41BC, symBinAddr: 0x100004EA8, symSize: 0x3C }
  - { offsetInCU: 0x16CEA, offset: 0x16CEA, size: 0x8, addend: 0x0, symName: __ZNSt3__16vectorIiNS_9allocatorIiEEE21_ConstructTransactionD1B8ue170006Ev, symObjAddr: 0x4288, symBinAddr: 0x100004F74, symSize: 0x2C }
  - { offsetInCU: 0x16D14, offset: 0x16D14, size: 0x8, addend: 0x0, symName: __ZNSt3__16vectorIiNS_9allocatorIiEEE21_ConstructTransactionC2B8ue170006ERS3_m, symObjAddr: 0x42B4, symBinAddr: 0x100004FA0, symSize: 0x44 }
  - { offsetInCU: 0x16D7A, offset: 0x16D7A, size: 0x8, addend: 0x0, symName: __ZNSt3__14pairIPiS1_EC1B8ue170006IS1_S1_LPv0EEEOT_OT0_, symObjAddr: 0x4464, symBinAddr: 0x100005150, symSize: 0x3C }
  - { offsetInCU: 0x16DD8, offset: 0x16DD8, size: 0x8, addend: 0x0, symName: __ZNSt3__14pairIPiS1_EC2B8ue170006IS1_S1_LPv0EEEOT_OT0_, symObjAddr: 0x44A0, symBinAddr: 0x10000518C, symSize: 0x34 }
  - { offsetInCU: 0x16E36, offset: 0x16E36, size: 0x8, addend: 0x0, symName: __ZNSt3__118__unwrap_iter_implINS_11__wrap_iterIPiEELb1EE8__unwrapB8ue170006ES3_, symObjAddr: 0x44D4, symBinAddr: 0x1000051C0, symSize: 0x28 }
  - { offsetInCU: 0x16E63, offset: 0x16E63, size: 0x8, addend: 0x0, symName: __ZNSt3__119__to_address_helperINS_11__wrap_iterIPiEEvE6__callB8ue170006ERKS3_, symObjAddr: 0x4520, symBinAddr: 0x10000520C, symSize: 0x30 }
  - { offsetInCU: 0x16E86, offset: 0x16E86, size: 0x8, addend: 0x0, symName: __ZNSt3__114pointer_traitsINS_11__wrap_iterIPiEEE10to_addressB8ue170006ES3_, symObjAddr: 0x4550, symBinAddr: 0x10000523C, symSize: 0x2C }
  - { offsetInCU: 0x16EA9, offset: 0x16EA9, size: 0x8, addend: 0x0, symName: __ZNKSt3__111__wrap_iterIPiE4baseB8ue170006Ev, symObjAddr: 0x457C, symBinAddr: 0x100005268, symSize: 0x18 }
  - { offsetInCU: 0x16ED9, offset: 0x16ED9, size: 0x8, addend: 0x0, symName: __ZNKSt3__114__copy_trivialclB8ue170006IiiLi0EEENS_4pairIPT_PT0_EES4_S4_S6_, symObjAddr: 0x4770, symBinAddr: 0x10000545C, symSize: 0x48 }
  - { offsetInCU: 0x16F41, offset: 0x16F41, size: 0x8, addend: 0x0, symName: __ZNSt3__14pairIPiS1_EC1B8ue170006IRS1_S1_LPv0EEEOT_OT0_, symObjAddr: 0x4900, symBinAddr: 0x1000055EC, symSize: 0x3C }
  - { offsetInCU: 0x16F9F, offset: 0x16F9F, size: 0x8, addend: 0x0, symName: __ZNSt3__14pairIPiS1_EC2B8ue170006IRS1_S1_LPv0EEEOT_OT0_, symObjAddr: 0x493C, symBinAddr: 0x100005628, symSize: 0x34 }
  - { offsetInCU: 0x16FFD, offset: 0x16FFD, size: 0x8, addend: 0x0, symName: __ZNSt3__118__unwrap_iter_implIPiLb1EE8__unwrapB8ue170006ES1_, symObjAddr: 0x4970, symBinAddr: 0x10000565C, symSize: 0x24 }
  - { offsetInCU: 0x17020, offset: 0x17020, size: 0x8, addend: 0x0, symName: __ZNSt3__118__unwrap_iter_implIPiLb1EE8__rewrapB8ue170006ES1_S1_, symObjAddr: 0x4994, symBinAddr: 0x100005680, symSize: 0x50 }
  - { offsetInCU: 0x17051, offset: 0x17051, size: 0x8, addend: 0x0, symName: __ZNSt3__16vectorIiNS_9allocatorIiEEE21_ConstructTransactionD2B8ue170006Ev, symObjAddr: 0x49E4, symBinAddr: 0x1000056D0, symSize: 0x20 }
  - { offsetInCU: 0x17099, offset: 0x17099, size: 0x8, addend: 0x0, symName: __ZNSt3__14pairINS_11__wrap_iterIPiEES2_EC1B8ue170006IS3_S2_LPv0EEEOT_OT0_, symObjAddr: 0x4B98, symBinAddr: 0x100005884, symSize: 0x3C }
  - { offsetInCU: 0x170F7, offset: 0x170F7, size: 0x8, addend: 0x0, symName: __ZNSt3__14pairINS_11__wrap_iterIPiEES2_EC2B8ue170006IS3_S2_LPv0EEEOT_OT0_, symObjAddr: 0x4BD4, symBinAddr: 0x1000058C0, symSize: 0x34 }
  - { offsetInCU: 0x17155, offset: 0x17155, size: 0x8, addend: 0x0, symName: __ZNSt3__118__unwrap_iter_implINS_11__wrap_iterIPiEELb1EE8__rewrapB8ue170006ES3_S2_, symObjAddr: 0x4C54, symBinAddr: 0x100005940, symSize: 0x5C }
  - { offsetInCU: 0x17186, offset: 0x17186, size: 0x8, addend: 0x0, symName: __ZNKSt3__16vectorIiNS_9allocatorIiEEE17__annotate_shrinkB8ue170006Em, symObjAddr: 0x4CB0, symBinAddr: 0x10000599C, symSize: 0xB4 }
  - { offsetInCU: 0x171BB, offset: 0x171BB, size: 0x8, addend: 0x0, symName: __ZNSt3__16vectorIiNS_9allocatorIiEEE5clearB8ue170006Ev, symObjAddr: 0x4D64, symBinAddr: 0x100005A50, symSize: 0x44 }
  - { offsetInCU: 0x171F0, offset: 0x171F0, size: 0x8, addend: 0x0, symName: __ZNSt3__16vectorIiNS_9allocatorIiEEE9__end_capB8ue170006Ev, symObjAddr: 0x4DA8, symBinAddr: 0x100005A94, symSize: 0x28 }
  - { offsetInCU: 0x17216, offset: 0x17216, size: 0x8, addend: 0x0, symName: __ZNSt3__117__compressed_pairIPiNS_9allocatorIiEEE5firstB8ue170006Ev, symObjAddr: 0x4DD0, symBinAddr: 0x100005ABC, symSize: 0x24 }
  - { offsetInCU: 0x1723C, offset: 0x1723C, size: 0x8, addend: 0x0, symName: __ZNSt3__122__compressed_pair_elemIPiLi0ELb0EE5__getB8ue170006Ev, symObjAddr: 0x4DF4, symBinAddr: 0x100005AE0, symSize: 0x14 }
  - { offsetInCU: 0x17262, offset: 0x17262, size: 0x8, addend: 0x0, symName: __ZNKSt3__16vectorIiNS_9allocatorIiEEE8max_sizeEv, symObjAddr: 0x4E08, symBinAddr: 0x100005AF4, symSize: 0x60 }
  - { offsetInCU: 0x1728A, offset: 0x1728A, size: 0x8, addend: 0x0, symName: __ZNKSt3__16vectorIiNS_9allocatorIiEEE20__throw_length_errorB8ue170006Ev, symObjAddr: 0x4E68, symBinAddr: 0x100005B54, symSize: 0x1C }
  - { offsetInCU: 0x172B0, offset: 0x172B0, size: 0x8, addend: 0x0, symName: __ZNKSt3__16vectorIiNS_9allocatorIiEEE14__annotate_newB8ue170006Em, symObjAddr: 0x4EC4, symBinAddr: 0x100005BB0, symSize: 0xAC }
  - { offsetInCU: 0x172EF, offset: 0x172EF, size: 0x8, addend: 0x0, symName: __ZNSt3__116allocator_traitsINS_9allocatorIiEEE8max_sizeB8ue170006IS2_vEEmRKS2_, symObjAddr: 0x4F9C, symBinAddr: 0x100005C88, symSize: 0x24 }
  - { offsetInCU: 0x1731D, offset: 0x1731D, size: 0x8, addend: 0x0, symName: __ZNKSt3__16vectorIiNS_9allocatorIiEEE7__allocB8ue170006Ev, symObjAddr: 0x4FC0, symBinAddr: 0x100005CAC, symSize: 0x28 }
  - { offsetInCU: 0x17343, offset: 0x17343, size: 0x8, addend: 0x0, symName: __ZNSt3__114numeric_limitsIlE3maxB8ue170006Ev, symObjAddr: 0x4FE8, symBinAddr: 0x100005CD4, symSize: 0x14 }
  - { offsetInCU: 0x17357, offset: 0x17357, size: 0x8, addend: 0x0, symName: __ZNKSt3__16__lessIvvEclB8ue170006ImmEEbRKT_RKT0_, symObjAddr: 0x5050, symBinAddr: 0x100005D3C, symSize: 0x34 }
  - { offsetInCU: 0x173AB, offset: 0x173AB, size: 0x8, addend: 0x0, symName: __ZNKSt3__19allocatorIiE8max_sizeB8ue170006Ev, symObjAddr: 0x5084, symBinAddr: 0x100005D70, symSize: 0x14 }
  - { offsetInCU: 0x173D1, offset: 0x173D1, size: 0x8, addend: 0x0, symName: __ZNKSt3__117__compressed_pairIPiNS_9allocatorIiEEE6secondB8ue170006Ev, symObjAddr: 0x5098, symBinAddr: 0x100005D84, symSize: 0x24 }
  - { offsetInCU: 0x173F7, offset: 0x173F7, size: 0x8, addend: 0x0, symName: __ZNKSt3__122__compressed_pair_elemINS_9allocatorIiEELi1ELb1EE5__getB8ue170006Ev, symObjAddr: 0x50BC, symBinAddr: 0x100005DA8, symSize: 0x14 }
  - { offsetInCU: 0x1741D, offset: 0x1741D, size: 0x8, addend: 0x0, symName: __ZNSt3__123__libcpp_numeric_limitsIlLb1EE3maxB8ue170006Ev, symObjAddr: 0x50D0, symBinAddr: 0x100005DBC, symSize: 0x8 }
  - { offsetInCU: 0x17431, offset: 0x17431, size: 0x8, addend: 0x0, symName: __ZNSt12length_errorC1B8ue170006EPKc, symObjAddr: 0x513C, symBinAddr: 0x100005E28, symSize: 0x34 }
  - { offsetInCU: 0x17469, offset: 0x17469, size: 0x8, addend: 0x0, symName: __ZNSt12length_errorC2B8ue170006EPKc, symObjAddr: 0x5170, symBinAddr: 0x100005E5C, symSize: 0x4C }
  - { offsetInCU: 0x174A1, offset: 0x174A1, size: 0x8, addend: 0x0, symName: __ZNSt3__19allocatorIiE8allocateB8ue170006Em, symObjAddr: 0x51BC, symBinAddr: 0x100005EA8, symSize: 0x58 }
  - { offsetInCU: 0x174D5, offset: 0x174D5, size: 0x8, addend: 0x0, symName: __ZNSt3__16vectorIiNS_9allocatorIiEEEC2ERKS3_, symObjAddr: 0x538C, symBinAddr: 0x100006078, symSize: 0x94 }
  - { offsetInCU: 0x17510, offset: 0x17510, size: 0x8, addend: 0x0, symName: __ZNSt3__116allocator_traitsINS_9allocatorIiEEE37select_on_container_copy_constructionB8ue170006IS2_vvEES2_RKS2_, symObjAddr: 0x5420, symBinAddr: 0x10000610C, symSize: 0x10 }
  - { offsetInCU: 0x17544, offset: 0x17544, size: 0x8, addend: 0x0, symName: __ZNSt3__117__compressed_pairIPiNS_9allocatorIiEEEC1B8ue170006IDnS3_EEOT_OT0_, symObjAddr: 0x5430, symBinAddr: 0x10000611C, symSize: 0x3C }
  - { offsetInCU: 0x1759C, offset: 0x1759C, size: 0x8, addend: 0x0, symName: __ZNSt3__16vectorIiNS_9allocatorIiEEE16__init_with_sizeB8ue170006IPiS5_EEvT_T0_m, symObjAddr: 0x546C, symBinAddr: 0x100006158, symSize: 0xB8 }
  - { offsetInCU: 0x17610, offset: 0x17610, size: 0x8, addend: 0x0, symName: __ZNSt3__117__compressed_pairIPiNS_9allocatorIiEEEC2B8ue170006IDnS3_EEOT_OT0_, symObjAddr: 0x5524, symBinAddr: 0x100006210, symSize: 0x44 }
  - { offsetInCU: 0x17668, offset: 0x17668, size: 0x8, addend: 0x0, symName: __ZNSt3__122__compressed_pair_elemINS_9allocatorIiEELi1ELb1EEC2B8ue170006IS2_vEEOT_, symObjAddr: 0x5568, symBinAddr: 0x100006254, symSize: 0x18 }
  - { offsetInCU: 0x176AA, offset: 0x176AA, size: 0x8, addend: 0x0, symName: __ZNSt3__16vectorIiNS_9allocatorIiEEE18__construct_at_endIPiS5_EEvT_T0_m, symObjAddr: 0x55C0, symBinAddr: 0x1000062AC, symSize: 0x8C }
  - { offsetInCU: 0x17720, offset: 0x17720, size: 0x8, addend: 0x0, symName: __ZNSt3__128__exception_guard_exceptionsINS_6vectorIiNS_9allocatorIiEEE16__destroy_vectorEE10__completeB8ue170006Ev, symObjAddr: 0x564C, symBinAddr: 0x100006338, symSize: 0x1C }
  - { offsetInCU: 0x17746, offset: 0x17746, size: 0x8, addend: 0x0, symName: __ZNSt3__128__exception_guard_exceptionsINS_6vectorIiNS_9allocatorIiEEE16__destroy_vectorEED1B8ue170006Ev, symObjAddr: 0x5668, symBinAddr: 0x100006354, symSize: 0x2C }
  - { offsetInCU: 0x17770, offset: 0x17770, size: 0x8, addend: 0x0, symName: __ZNSt3__128__exception_guard_exceptionsINS_6vectorIiNS_9allocatorIiEEE16__destroy_vectorEEC1B8ue170006ES5_, symObjAddr: 0x5694, symBinAddr: 0x100006380, symSize: 0x34 }
  - { offsetInCU: 0x177A8, offset: 0x177A8, size: 0x8, addend: 0x0, symName: __ZNSt3__128__exception_guard_exceptionsINS_6vectorIiNS_9allocatorIiEEE16__destroy_vectorEEC2B8ue170006ES5_, symObjAddr: 0x56C8, symBinAddr: 0x1000063B4, symSize: 0x24 }
  - { offsetInCU: 0x177E0, offset: 0x177E0, size: 0x8, addend: 0x0, symName: __ZNSt3__128__exception_guard_exceptionsINS_6vectorIiNS_9allocatorIiEEE16__destroy_vectorEED2B8ue170006Ev, symObjAddr: 0x576C, symBinAddr: 0x100006458, symSize: 0x48 }
  - { offsetInCU: 0x1780A, offset: 0x1780A, size: 0x8, addend: 0x0, symName: __ZNSt3__16vectorIbNS_9allocatorIbEEE10__make_refB8ue170006Em, symObjAddr: 0x57B4, symBinAddr: 0x1000064A0, symSize: 0x60 }
  - { offsetInCU: 0x1783F, offset: 0x1783F, size: 0x8, addend: 0x0, symName: __ZNSt3__115__bit_referenceINS_6vectorIbNS_9allocatorIbEEEELb1EEC1B8ue170006EPmm, symObjAddr: 0x5814, symBinAddr: 0x100006500, symSize: 0x3C }
  - { offsetInCU: 0x17885, offset: 0x17885, size: 0x8, addend: 0x0, symName: __ZNSt3__115__bit_referenceINS_6vectorIbNS_9allocatorIbEEEELb1EEC2B8ue170006EPmm, symObjAddr: 0x5850, symBinAddr: 0x10000653C, symSize: 0x2C }
  - { offsetInCU: 0x178CB, offset: 0x178CB, size: 0x8, addend: 0x0, symName: __ZNSt3__15queueI13travel_statusNS_5dequeIS1_NS_9allocatorIS1_EEEEEC2B8ue170006Ev, symObjAddr: 0x587C, symBinAddr: 0x100006568, symSize: 0x2C }
  - { offsetInCU: 0x178F5, offset: 0x178F5, size: 0x8, addend: 0x0, symName: __ZNSt3__15dequeI13travel_statusNS_9allocatorIS1_EEEC1B8ue170006Ev, symObjAddr: 0x58A8, symBinAddr: 0x100006594, symSize: 0x2C }
  - { offsetInCU: 0x1791F, offset: 0x1791F, size: 0x8, addend: 0x0, symName: __ZNSt3__15dequeI13travel_statusNS_9allocatorIS1_EEEC2B8ue170006Ev, symObjAddr: 0x58D4, symBinAddr: 0x1000065C0, symSize: 0x5C }
  - { offsetInCU: 0x17949, offset: 0x17949, size: 0x8, addend: 0x0, symName: __ZNSt3__114__split_bufferIP13travel_statusNS_9allocatorIS2_EEEC1B8ue170006Ev, symObjAddr: 0x5930, symBinAddr: 0x10000661C, symSize: 0x2C }
  - { offsetInCU: 0x17973, offset: 0x17973, size: 0x8, addend: 0x0, symName: __ZNSt3__117__compressed_pairImNS_9allocatorI13travel_statusEEEC1B8ue170006IiNS_18__default_init_tagEEEOT_OT0_, symObjAddr: 0x595C, symBinAddr: 0x100006648, symSize: 0x3C }
  - { offsetInCU: 0x179CB, offset: 0x179CB, size: 0x8, addend: 0x0, symName: __ZNSt3__114__split_bufferIP13travel_statusNS_9allocatorIS2_EEEC2B8ue170006Ev, symObjAddr: 0x5998, symBinAddr: 0x100006684, symSize: 0x50 }
  - { offsetInCU: 0x179F5, offset: 0x179F5, size: 0x8, addend: 0x0, symName: __ZNSt3__117__compressed_pairIPP13travel_statusNS_9allocatorIS2_EEEC1B8ue170006IDnNS_18__default_init_tagEEEOT_OT0_, symObjAddr: 0x59E8, symBinAddr: 0x1000066D4, symSize: 0x3C }
  - { offsetInCU: 0x17A4D, offset: 0x17A4D, size: 0x8, addend: 0x0, symName: __ZNSt3__117__compressed_pairIPP13travel_statusNS_9allocatorIS2_EEEC2B8ue170006IDnNS_18__default_init_tagEEEOT_OT0_, symObjAddr: 0x5A24, symBinAddr: 0x100006710, symSize: 0x40 }
  - { offsetInCU: 0x17AA5, offset: 0x17AA5, size: 0x8, addend: 0x0, symName: __ZNSt3__122__compressed_pair_elemIPP13travel_statusLi0ELb0EEC2B8ue170006IDnvEEOT_, symObjAddr: 0x5A64, symBinAddr: 0x100006750, symSize: 0x1C }
  - { offsetInCU: 0x17AE7, offset: 0x17AE7, size: 0x8, addend: 0x0, symName: __ZNSt3__122__compressed_pair_elemINS_9allocatorIP13travel_statusEELi1ELb1EEC2B8ue170006ENS_18__default_init_tagE, symObjAddr: 0x5A80, symBinAddr: 0x10000676C, symSize: 0x2C }
  - { offsetInCU: 0x17B1B, offset: 0x17B1B, size: 0x8, addend: 0x0, symName: __ZNSt3__19allocatorIP13travel_statusEC2B8ue170006Ev, symObjAddr: 0x5AAC, symBinAddr: 0x100006798, symSize: 0x2C }
  - { offsetInCU: 0x17B45, offset: 0x17B45, size: 0x8, addend: 0x0, symName: __ZNSt3__116__non_trivial_ifILb1ENS_9allocatorIP13travel_statusEEEC2B8ue170006Ev, symObjAddr: 0x5AD8, symBinAddr: 0x1000067C4, symSize: 0x14 }
  - { offsetInCU: 0x17B6F, offset: 0x17B6F, size: 0x8, addend: 0x0, symName: __ZNSt3__117__compressed_pairImNS_9allocatorI13travel_statusEEEC2B8ue170006IiNS_18__default_init_tagEEEOT_OT0_, symObjAddr: 0x5AEC, symBinAddr: 0x1000067D8, symSize: 0x40 }
  - { offsetInCU: 0x17BC7, offset: 0x17BC7, size: 0x8, addend: 0x0, symName: __ZNSt3__122__compressed_pair_elemINS_9allocatorI13travel_statusEELi1ELb1EEC2B8ue170006ENS_18__default_init_tagE, symObjAddr: 0x5B2C, symBinAddr: 0x100006818, symSize: 0x2C }
  - { offsetInCU: 0x17BFB, offset: 0x17BFB, size: 0x8, addend: 0x0, symName: __ZNSt3__19allocatorI13travel_statusEC2B8ue170006Ev, symObjAddr: 0x5B58, symBinAddr: 0x100006844, symSize: 0x2C }
  - { offsetInCU: 0x17C25, offset: 0x17C25, size: 0x8, addend: 0x0, symName: __ZNSt3__116__non_trivial_ifILb1ENS_9allocatorI13travel_statusEEEC2B8ue170006Ev, symObjAddr: 0x5B84, symBinAddr: 0x100006870, symSize: 0x14 }
  - { offsetInCU: 0x17C4F, offset: 0x17C4F, size: 0x8, addend: 0x0, symName: __ZNSt3__16vectorIiNS_9allocatorIiEEE22__construct_one_at_endB8ue170006IJiEEEvDpOT_, symObjAddr: 0x5B98, symBinAddr: 0x100006884, symSize: 0x90 }
  - { offsetInCU: 0x17C9E, offset: 0x17C9E, size: 0x8, addend: 0x0, symName: __ZNSt3__16vectorIiNS_9allocatorIiEEE21__push_back_slow_pathIiEEvOT_, symObjAddr: 0x5C28, symBinAddr: 0x100006914, symSize: 0xD8 }
  - { offsetInCU: 0x17CFC, offset: 0x17CFC, size: 0x8, addend: 0x0, symName: __ZNSt3__116allocator_traitsINS_9allocatorIiEEE9constructB8ue170006IiJiEvEEvRS2_PT_DpOT0_, symObjAddr: 0x5D00, symBinAddr: 0x1000069EC, symSize: 0x34 }
  - { offsetInCU: 0x17D53, offset: 0x17D53, size: 0x8, addend: 0x0, symName: __ZNSt3__19allocatorIiE9constructB8ue170006IiJiEEEvPT_DpOT0_, symObjAddr: 0x5D34, symBinAddr: 0x100006A20, symSize: 0x28 }
  - { offsetInCU: 0x17DA9, offset: 0x17DA9, size: 0x8, addend: 0x0, symName: __ZNSt3__114__split_bufferIiRNS_9allocatorIiEEEC1EmmS3_, symObjAddr: 0x5D5C, symBinAddr: 0x100006A48, symSize: 0x44 }
  - { offsetInCU: 0x17DFF, offset: 0x17DFF, size: 0x8, addend: 0x0, symName: __ZNSt3__114__split_bufferIiRNS_9allocatorIiEEED1Ev, symObjAddr: 0x5EB0, symBinAddr: 0x100006B9C, symSize: 0x2C }
  - { offsetInCU: 0x17E2B, offset: 0x17E2B, size: 0x8, addend: 0x0, symName: __ZNSt3__114__split_bufferIiRNS_9allocatorIiEEEC2EmmS3_, symObjAddr: 0x5EDC, symBinAddr: 0x100006BC8, symSize: 0xD4 }
  - { offsetInCU: 0x17E9E, offset: 0x17E9E, size: 0x8, addend: 0x0, symName: __ZNSt3__117__compressed_pairIPiRNS_9allocatorIiEEEC1B8ue170006IDnS4_EEOT_OT0_, symObjAddr: 0x5FB0, symBinAddr: 0x100006C9C, symSize: 0x3C }
  - { offsetInCU: 0x17EF6, offset: 0x17EF6, size: 0x8, addend: 0x0, symName: __ZNSt3__114__split_bufferIiRNS_9allocatorIiEEE7__allocB8ue170006Ev, symObjAddr: 0x5FEC, symBinAddr: 0x100006CD8, symSize: 0x28 }
  - { offsetInCU: 0x17F1C, offset: 0x17F1C, size: 0x8, addend: 0x0, symName: __ZNSt3__114__split_bufferIiRNS_9allocatorIiEEE9__end_capB8ue170006Ev, symObjAddr: 0x6014, symBinAddr: 0x100006D00, symSize: 0x28 }
  - { offsetInCU: 0x17F42, offset: 0x17F42, size: 0x8, addend: 0x0, symName: __ZNSt3__117__compressed_pairIPiRNS_9allocatorIiEEEC2B8ue170006IDnS4_EEOT_OT0_, symObjAddr: 0x603C, symBinAddr: 0x100006D28, symSize: 0x48 }
  - { offsetInCU: 0x17F9A, offset: 0x17F9A, size: 0x8, addend: 0x0, symName: __ZNSt3__122__compressed_pair_elemIRNS_9allocatorIiEELi1ELb0EEC2B8ue170006IS3_vEEOT_, symObjAddr: 0x6084, symBinAddr: 0x100006D70, symSize: 0x20 }
  - { offsetInCU: 0x17FDC, offset: 0x17FDC, size: 0x8, addend: 0x0, symName: __ZNSt3__117__compressed_pairIPiRNS_9allocatorIiEEE6secondB8ue170006Ev, symObjAddr: 0x60A4, symBinAddr: 0x100006D90, symSize: 0x28 }
  - { offsetInCU: 0x18002, offset: 0x18002, size: 0x8, addend: 0x0, symName: __ZNSt3__122__compressed_pair_elemIRNS_9allocatorIiEELi1ELb0EE5__getB8ue170006Ev, symObjAddr: 0x60CC, symBinAddr: 0x100006DB8, symSize: 0x18 }
  - { offsetInCU: 0x18028, offset: 0x18028, size: 0x8, addend: 0x0, symName: __ZNSt3__117__compressed_pairIPiRNS_9allocatorIiEEE5firstB8ue170006Ev, symObjAddr: 0x60E4, symBinAddr: 0x100006DD0, symSize: 0x24 }
  - { offsetInCU: 0x1804E, offset: 0x1804E, size: 0x8, addend: 0x0, symName: __ZNSt3__116reverse_iteratorIPiEC1B8ue170006ES1_, symObjAddr: 0x6180, symBinAddr: 0x100006E6C, symSize: 0x34 }
  - { offsetInCU: 0x18086, offset: 0x18086, size: 0x8, addend: 0x0, symName: __ZNKSt3__116reverse_iteratorIPiE4baseB8ue170006Ev, symObjAddr: 0x61B4, symBinAddr: 0x100006EA0, symSize: 0x18 }
  - { offsetInCU: 0x180CF, offset: 0x180CF, size: 0x8, addend: 0x0, symName: __ZNKSt3__111__move_loopINS_17_ClassicAlgPolicyEEclB8ue170006INS_16reverse_iteratorIPiEES6_S6_EENS_4pairIT_T1_EES8_T0_S9_, symObjAddr: 0x64F8, symBinAddr: 0x1000071E4, symSize: 0xA0 }
  - { offsetInCU: 0x1813A, offset: 0x1813A, size: 0x8, addend: 0x0, symName: __ZNSt3__18_IterOpsINS_17_ClassicAlgPolicyEE11__iter_moveB8ue170006IRNS_16reverse_iteratorIPiEEEENS_9enable_ifIXsr12is_referenceIDTdeclsr3stdE7declvalIRT_EEEEE5valueEDTclsr3stdE4movedeclsr3stdE7declvalISA_EEEEE4typeEOS9_, symObjAddr: 0x672C, symBinAddr: 0x100007418, symSize: 0x28 }
  - { offsetInCU: 0x18166, offset: 0x18166, size: 0x8, addend: 0x0, symName: __ZNKSt3__116reverse_iteratorIPiEdeB8ue170006Ev, symObjAddr: 0x6754, symBinAddr: 0x100007440, symSize: 0x28 }
  - { offsetInCU: 0x1819A, offset: 0x1819A, size: 0x8, addend: 0x0, symName: __ZNSt3__116reverse_iteratorIPiEppB8ue170006Ev, symObjAddr: 0x677C, symBinAddr: 0x100007468, symSize: 0x20 }
  - { offsetInCU: 0x181C0, offset: 0x181C0, size: 0x8, addend: 0x0, symName: __ZNSt3__18_IterOpsINS_17_ClassicAlgPolicyEE25__validate_iter_referenceB8ue170006IRNS_16reverse_iteratorIPiEEEEvv, symObjAddr: 0x679C, symBinAddr: 0x100007488, symSize: 0x4 }
  - { offsetInCU: 0x181DE, offset: 0x181DE, size: 0x8, addend: 0x0, symName: __ZNSt3__118__unwrap_iter_implINS_16reverse_iteratorIPiEELb0EE8__unwrapB8ue170006ES3_, symObjAddr: 0x67A0, symBinAddr: 0x10000748C, symSize: 0x24 }
  - { offsetInCU: 0x18206, offset: 0x18206, size: 0x8, addend: 0x0, symName: __ZNSt3__14pairINS_16reverse_iteratorIPiEES3_EC1B8ue170006IS3_S3_LPv0EEEOT_OT0_, symObjAddr: 0x67C4, symBinAddr: 0x1000074B0, symSize: 0x3C }
  - { offsetInCU: 0x18264, offset: 0x18264, size: 0x8, addend: 0x0, symName: __ZNSt3__14pairINS_16reverse_iteratorIPiEES3_EC2B8ue170006IS3_S3_LPv0EEEOT_OT0_, symObjAddr: 0x6800, symBinAddr: 0x1000074EC, symSize: 0x34 }
  - { offsetInCU: 0x182C2, offset: 0x182C2, size: 0x8, addend: 0x0, symName: __ZNSt3__118__unwrap_iter_implINS_16reverse_iteratorIPiEELb0EE8__rewrapB8ue170006ES3_S3_, symObjAddr: 0x6834, symBinAddr: 0x100007520, symSize: 0x2C }
  - { offsetInCU: 0x182EF, offset: 0x182EF, size: 0x8, addend: 0x0, symName: __ZNSt3__116reverse_iteratorIPiEC2B8ue170006ES1_, symObjAddr: 0x6860, symBinAddr: 0x10000754C, symSize: 0x28 }
  - { offsetInCU: 0x18327, offset: 0x18327, size: 0x8, addend: 0x0, symName: __ZNSt3__114__split_bufferIiRNS_9allocatorIiEEED2Ev, symObjAddr: 0x6888, symBinAddr: 0x100007574, symSize: 0x8C }
  - { offsetInCU: 0x18353, offset: 0x18353, size: 0x8, addend: 0x0, symName: __ZNSt3__114__split_bufferIiRNS_9allocatorIiEEE5clearB8ue170006Ev, symObjAddr: 0x6914, symBinAddr: 0x100007600, symSize: 0x28 }
  - { offsetInCU: 0x18379, offset: 0x18379, size: 0x8, addend: 0x0, symName: __ZNKSt3__114__split_bufferIiRNS_9allocatorIiEEE8capacityB8ue170006Ev, symObjAddr: 0x693C, symBinAddr: 0x100007628, symSize: 0x40 }
  - { offsetInCU: 0x1839F, offset: 0x1839F, size: 0x8, addend: 0x0, symName: __ZNSt3__114__split_bufferIiRNS_9allocatorIiEEE17__destruct_at_endB8ue170006EPi, symObjAddr: 0x697C, symBinAddr: 0x100007668, symSize: 0x2C }
  - { offsetInCU: 0x183D3, offset: 0x183D3, size: 0x8, addend: 0x0, symName: __ZNSt3__114__split_bufferIiRNS_9allocatorIiEEE17__destruct_at_endB8ue170006EPiNS_17integral_constantIbLb0EEE, symObjAddr: 0x69A8, symBinAddr: 0x100007694, symSize: 0x80 }
  - { offsetInCU: 0x18413, offset: 0x18413, size: 0x8, addend: 0x0, symName: __ZNKSt3__114__split_bufferIiRNS_9allocatorIiEEE9__end_capB8ue170006Ev, symObjAddr: 0x6A28, symBinAddr: 0x100007714, symSize: 0x28 }
  - { offsetInCU: 0x18439, offset: 0x18439, size: 0x8, addend: 0x0, symName: __ZNKSt3__117__compressed_pairIPiRNS_9allocatorIiEEE5firstB8ue170006Ev, symObjAddr: 0x6A50, symBinAddr: 0x10000773C, symSize: 0x24 }
  - { offsetInCU: 0x1845F, offset: 0x1845F, size: 0x8, addend: 0x0, symName: __ZNSt3__16vectorIiNS_9allocatorIiEEE22__construct_one_at_endB8ue170006IJRKiEEEvDpOT_, symObjAddr: 0x6A74, symBinAddr: 0x100007760, symSize: 0x90 }
  - { offsetInCU: 0x184AE, offset: 0x184AE, size: 0x8, addend: 0x0, symName: __ZNSt3__16vectorIiNS_9allocatorIiEEE21__push_back_slow_pathIRKiEEvOT_, symObjAddr: 0x6B04, symBinAddr: 0x1000077F0, symSize: 0xD8 }
  - { offsetInCU: 0x1850C, offset: 0x1850C, size: 0x8, addend: 0x0, symName: __ZNSt3__116allocator_traitsINS_9allocatorIiEEE9constructB8ue170006IiJRKiEvEEvRS2_PT_DpOT0_, symObjAddr: 0x6BDC, symBinAddr: 0x1000078C8, symSize: 0x34 }
  - { offsetInCU: 0x18563, offset: 0x18563, size: 0x8, addend: 0x0, symName: __ZNSt3__19allocatorIiE9constructB8ue170006IiJRKiEEEvPT_DpOT0_, symObjAddr: 0x6C10, symBinAddr: 0x1000078FC, symSize: 0x28 }
  - { offsetInCU: 0x185B9, offset: 0x185B9, size: 0x8, addend: 0x0, symName: __ZNSt3__15dequeI13travel_statusNS_9allocatorIS1_EEE9push_backERKS1_, symObjAddr: 0x6C38, symBinAddr: 0x100007924, symSize: 0xAC }
  - { offsetInCU: 0x185FF, offset: 0x185FF, size: 0x8, addend: 0x0, symName: __ZNKSt3__15dequeI13travel_statusNS_9allocatorIS1_EEE12__back_spareB8ue170006Ev, symObjAddr: 0x6CE4, symBinAddr: 0x1000079D0, symSize: 0x54 }
  - { offsetInCU: 0x18625, offset: 0x18625, size: 0x8, addend: 0x0, symName: __ZNSt3__15dequeI13travel_statusNS_9allocatorIS1_EEE19__add_back_capacityEv, symObjAddr: 0x6D38, symBinAddr: 0x100007A24, symSize: 0x34C }
  - { offsetInCU: 0x186DB, offset: 0x186DB, size: 0x8, addend: 0x0, symName: __ZNKSt3__15dequeI13travel_statusNS_9allocatorIS1_EEE24__annotate_increase_backB8ue170006Em, symObjAddr: 0x7084, symBinAddr: 0x100007D70, symSize: 0x7C }
  - { offsetInCU: 0x18710, offset: 0x18710, size: 0x8, addend: 0x0, symName: __ZNSt3__116allocator_traitsINS_9allocatorI13travel_statusEEE9constructB8ue170006IS2_JRKS2_EvEEvRS3_PT_DpOT0_, symObjAddr: 0x7100, symBinAddr: 0x100007DEC, symSize: 0x34 }
  - { offsetInCU: 0x18767, offset: 0x18767, size: 0x8, addend: 0x0, symName: __ZNKSt3__15dequeI13travel_statusNS_9allocatorIS1_EEE10__capacityB8ue170006Ev, symObjAddr: 0x7134, symBinAddr: 0x100007E20, symSize: 0x64 }
  - { offsetInCU: 0x1878D, offset: 0x1878D, size: 0x8, addend: 0x0, symName: __ZNKSt3__15dequeI13travel_statusNS_9allocatorIS1_EEE13__front_spareB8ue170006Ev, symObjAddr: 0x7198, symBinAddr: 0x100007E84, symSize: 0x18 }
  - { offsetInCU: 0x187B3, offset: 0x187B3, size: 0x8, addend: 0x0, symName: __ZNSt3__114__split_bufferIP13travel_statusNS_9allocatorIS2_EEE9push_backB8ue170006ERKS2_, symObjAddr: 0x71B0, symBinAddr: 0x100007E9C, symSize: 0x260 }
  - { offsetInCU: 0x1882C, offset: 0x1882C, size: 0x8, addend: 0x0, symName: __ZNKSt3__114__split_bufferIP13travel_statusNS_9allocatorIS2_EEE12__back_spareB8ue170006Ev, symObjAddr: 0x7410, symBinAddr: 0x1000080FC, symSize: 0x40 }
  - { offsetInCU: 0x18852, offset: 0x18852, size: 0x8, addend: 0x0, symName: __ZNSt3__114__split_bufferIP13travel_statusNS_9allocatorIS2_EEE9push_backEOS2_, symObjAddr: 0x7450, symBinAddr: 0x10000813C, symSize: 0x260 }
  - { offsetInCU: 0x188CB, offset: 0x188CB, size: 0x8, addend: 0x0, symName: __ZNSt3__116allocator_traitsINS_9allocatorI13travel_statusEEE8allocateB8ue170006ERS3_m, symObjAddr: 0x76B0, symBinAddr: 0x10000839C, symSize: 0x2C }
  - { offsetInCU: 0x188FE, offset: 0x188FE, size: 0x8, addend: 0x0, symName: __ZNSt3__114__split_bufferIP13travel_statusNS_9allocatorIS2_EEE10push_frontEOS2_, symObjAddr: 0x76DC, symBinAddr: 0x1000083C8, symSize: 0x25C }
  - { offsetInCU: 0x18977, offset: 0x18977, size: 0x8, addend: 0x0, symName: __ZNSt3__114__split_bufferIP13travel_statusRNS_9allocatorIS2_EEEC1EmmS5_, symObjAddr: 0x7938, symBinAddr: 0x100008624, symSize: 0x44 }
  - { offsetInCU: 0x189D2, offset: 0x189D2, size: 0x8, addend: 0x0, symName: __ZNSt3__122__allocator_destructorINS_9allocatorI13travel_statusEEEC1B8ue170006ERS3_m, symObjAddr: 0x797C, symBinAddr: 0x100008668, symSize: 0x3C }
  - { offsetInCU: 0x18A95, offset: 0x18A95, size: 0x8, addend: 0x0, symName: __ZNSt3__110unique_ptrIP13travel_statusNS_22__allocator_destructorINS_9allocatorIS1_EEEEEC1B8ue170006ILb1EvEES2_NS_16__dependent_typeINS_27__unique_ptr_deleter_sfinaeIS6_EEXT_EE20__good_rval_ref_typeE, symObjAddr: 0x79B8, symBinAddr: 0x1000086A4, symSize: 0x3C }
  - { offsetInCU: 0x18AE6, offset: 0x18AE6, size: 0x8, addend: 0x0, symName: __ZNSt3__114__split_bufferIP13travel_statusRNS_9allocatorIS2_EEE9push_backEOS2_, symObjAddr: 0x79F4, symBinAddr: 0x1000086E0, symSize: 0x260 }
  - { offsetInCU: 0x18B5F, offset: 0x18B5F, size: 0x8, addend: 0x0, symName: __ZNKSt3__110unique_ptrIP13travel_statusNS_22__allocator_destructorINS_9allocatorIS1_EEEEE3getB8ue170006Ev, symObjAddr: 0x7C54, symBinAddr: 0x100008940, symSize: 0x28 }
  - { offsetInCU: 0x18B85, offset: 0x18B85, size: 0x8, addend: 0x0, symName: __ZNSt3__110unique_ptrIP13travel_statusNS_22__allocator_destructorINS_9allocatorIS1_EEEEE7releaseB8ue170006Ev, symObjAddr: 0x7C7C, symBinAddr: 0x100008968, symSize: 0x44 }
  - { offsetInCU: 0x18BBA, offset: 0x18BBA, size: 0x8, addend: 0x0, symName: __ZNSt3__114__split_bufferIP13travel_statusRNS_9allocatorIS2_EEE10push_frontERKS2_, symObjAddr: 0x7CC0, symBinAddr: 0x1000089AC, symSize: 0x25C }
  - { offsetInCU: 0x18C33, offset: 0x18C33, size: 0x8, addend: 0x0, symName: __ZNSt3__114__split_bufferIP13travel_statusNS_9allocatorIS2_EEE9__end_capB8ue170006Ev, symObjAddr: 0x7F58, symBinAddr: 0x100008C44, symSize: 0x28 }
  - { offsetInCU: 0x18C59, offset: 0x18C59, size: 0x8, addend: 0x0, symName: __ZNSt3__114__split_bufferIP13travel_statusRNS_9allocatorIS2_EEE9__end_capB8ue170006Ev, symObjAddr: 0x7F80, symBinAddr: 0x100008C6C, symSize: 0x28 }
  - { offsetInCU: 0x18C7F, offset: 0x18C7F, size: 0x8, addend: 0x0, symName: __ZNSt3__110unique_ptrIP13travel_statusNS_22__allocator_destructorINS_9allocatorIS1_EEEEED1B8ue170006Ev, symObjAddr: 0x7FA8, symBinAddr: 0x100008C94, symSize: 0x2C }
  - { offsetInCU: 0x18CA9, offset: 0x18CA9, size: 0x8, addend: 0x0, symName: __ZNSt3__114__split_bufferIP13travel_statusRNS_9allocatorIS2_EEED1Ev, symObjAddr: 0x7FD4, symBinAddr: 0x100008CC0, symSize: 0x2C }
  - { offsetInCU: 0x18CD5, offset: 0x18CD5, size: 0x8, addend: 0x0, symName: __ZNSt3__114__split_bufferIP13travel_statusRNS_9allocatorIS2_EEE18__construct_at_endINS_13move_iteratorIPS2_EEEENS_9enable_ifIXsr31__has_forward_iterator_categoryIT_EE5valueEvE4typeESC_SC_, symObjAddr: 0x8040, symBinAddr: 0x100008D2C, symSize: 0x60 }
  - { offsetInCU: 0x18D22, offset: 0x18D22, size: 0x8, addend: 0x0, symName: __ZNSt3__113move_iteratorIPP13travel_statusEC1B8ue170006ES3_, symObjAddr: 0x80A0, symBinAddr: 0x100008D8C, symSize: 0x34 }
  - { offsetInCU: 0x18D5A, offset: 0x18D5A, size: 0x8, addend: 0x0, symName: __ZNSt3__116allocator_traitsINS_9allocatorIP13travel_statusEEE9constructB8ue170006IS3_JRKS3_EvEEvRS4_PT_DpOT0_, symObjAddr: 0x80D4, symBinAddr: 0x100008DC0, symSize: 0x34 }
  - { offsetInCU: 0x18DD4, offset: 0x18DD4, size: 0x8, addend: 0x0, symName: __ZNKSt3__114__move_trivialclB8ue170006IP13travel_statusS3_Li0EEENS_4pairIPT_PT0_EES6_S6_S8_, symObjAddr: 0x82A4, symBinAddr: 0x100008F90, symSize: 0x48 }
  - { offsetInCU: 0x18E41, offset: 0x18E41, size: 0x8, addend: 0x0, symName: __ZNSt3__14pairIPP13travel_statusS3_EC1B8ue170006IRS3_S3_LPv0EEEOT_OT0_, symObjAddr: 0x84CC, symBinAddr: 0x1000091B8, symSize: 0x3C }
  - { offsetInCU: 0x18E9F, offset: 0x18E9F, size: 0x8, addend: 0x0, symName: __ZNSt3__14pairIPP13travel_statusS3_EC2B8ue170006IRS3_S3_LPv0EEEOT_OT0_, symObjAddr: 0x8508, symBinAddr: 0x1000091F4, symSize: 0x34 }
  - { offsetInCU: 0x18EFD, offset: 0x18EFD, size: 0x8, addend: 0x0, symName: __ZNSt3__118__unwrap_iter_implIPP13travel_statusLb1EE8__unwrapB8ue170006ES3_, symObjAddr: 0x853C, symBinAddr: 0x100009228, symSize: 0x24 }
  - { offsetInCU: 0x18F20, offset: 0x18F20, size: 0x8, addend: 0x0, symName: __ZNSt3__14pairIPP13travel_statusS3_EC1B8ue170006IS3_S3_LPv0EEEOT_OT0_, symObjAddr: 0x8560, symBinAddr: 0x10000924C, symSize: 0x3C }
  - { offsetInCU: 0x18F7E, offset: 0x18F7E, size: 0x8, addend: 0x0, symName: __ZNSt3__14pairIPP13travel_statusS3_EC2B8ue170006IS3_S3_LPv0EEEOT_OT0_, symObjAddr: 0x859C, symBinAddr: 0x100009288, symSize: 0x34 }
  - { offsetInCU: 0x18FDC, offset: 0x18FDC, size: 0x8, addend: 0x0, symName: __ZNSt3__118__unwrap_iter_implIPP13travel_statusLb1EE8__rewrapB8ue170006ES3_S3_, symObjAddr: 0x85D0, symBinAddr: 0x1000092BC, symSize: 0x50 }
  - { offsetInCU: 0x1900D, offset: 0x1900D, size: 0x8, addend: 0x0, symName: __ZNSt3__114__split_bufferIP13travel_statusRNS_9allocatorIS2_EEE28__construct_at_end_with_sizeINS_13move_iteratorIPS2_EEEEvT_m, symObjAddr: 0x8620, symBinAddr: 0x10000930C, symSize: 0xDC }
  - { offsetInCU: 0x19073, offset: 0x19073, size: 0x8, addend: 0x0, symName: __ZNSt3__114__split_bufferIP13travel_statusRNS_9allocatorIS2_EEE21_ConstructTransactionC1B8ue170006EPPS2_m, symObjAddr: 0x8738, symBinAddr: 0x100009424, symSize: 0x3C }
  - { offsetInCU: 0x190B9, offset: 0x190B9, size: 0x8, addend: 0x0, symName: __ZNSt3__116allocator_traitsINS_9allocatorIP13travel_statusEEE9constructB8ue170006IS3_JS3_EvEEvRS4_PT_DpOT0_, symObjAddr: 0x8774, symBinAddr: 0x100009460, symSize: 0x34 }
  - { offsetInCU: 0x19110, offset: 0x19110, size: 0x8, addend: 0x0, symName: __ZNSt3__114__split_bufferIP13travel_statusRNS_9allocatorIS2_EEE7__allocB8ue170006Ev, symObjAddr: 0x87A8, symBinAddr: 0x100009494, symSize: 0x28 }
  - { offsetInCU: 0x19136, offset: 0x19136, size: 0x8, addend: 0x0, symName: __ZNKSt3__113move_iteratorIPP13travel_statusEdeB8ue170006Ev, symObjAddr: 0x87D0, symBinAddr: 0x1000094BC, symSize: 0x18 }
  - { offsetInCU: 0x1915C, offset: 0x1915C, size: 0x8, addend: 0x0, symName: __ZNSt3__113move_iteratorIPP13travel_statusEppB8ue170006Ev, symObjAddr: 0x87E8, symBinAddr: 0x1000094D4, symSize: 0x20 }
  - { offsetInCU: 0x19182, offset: 0x19182, size: 0x8, addend: 0x0, symName: __ZNSt3__114__split_bufferIP13travel_statusRNS_9allocatorIS2_EEE21_ConstructTransactionD1B8ue170006Ev, symObjAddr: 0x8808, symBinAddr: 0x1000094F4, symSize: 0x2C }
  - { offsetInCU: 0x191AC, offset: 0x191AC, size: 0x8, addend: 0x0, symName: __ZNSt3__114__split_bufferIP13travel_statusRNS_9allocatorIS2_EEE21_ConstructTransactionC2B8ue170006EPPS2_m, symObjAddr: 0x8834, symBinAddr: 0x100009520, symSize: 0x44 }
  - { offsetInCU: 0x191F2, offset: 0x191F2, size: 0x8, addend: 0x0, symName: __ZNSt3__19allocatorIP13travel_statusE9constructB8ue170006IS2_JS2_EEEvPT_DpOT0_, symObjAddr: 0x8878, symBinAddr: 0x100009564, symSize: 0x28 }
  - { offsetInCU: 0x19248, offset: 0x19248, size: 0x8, addend: 0x0, symName: __ZNSt3__117__compressed_pairIPP13travel_statusRNS_9allocatorIS2_EEE6secondB8ue170006Ev, symObjAddr: 0x88A0, symBinAddr: 0x10000958C, symSize: 0x28 }
  - { offsetInCU: 0x1926E, offset: 0x1926E, size: 0x8, addend: 0x0, symName: __ZNSt3__122__compressed_pair_elemIRNS_9allocatorIP13travel_statusEELi1ELb0EE5__getB8ue170006Ev, symObjAddr: 0x88C8, symBinAddr: 0x1000095B4, symSize: 0x18 }
  - { offsetInCU: 0x19294, offset: 0x19294, size: 0x8, addend: 0x0, symName: __ZNSt3__114__split_bufferIP13travel_statusRNS_9allocatorIS2_EEE21_ConstructTransactionD2B8ue170006Ev, symObjAddr: 0x88E0, symBinAddr: 0x1000095CC, symSize: 0x20 }
  - { offsetInCU: 0x192BE, offset: 0x192BE, size: 0x8, addend: 0x0, symName: __ZNKSt3__113move_iteratorIPP13travel_statusE4baseB8ue170006Ev, symObjAddr: 0x8978, symBinAddr: 0x100009664, symSize: 0x18 }
  - { offsetInCU: 0x192E4, offset: 0x192E4, size: 0x8, addend: 0x0, symName: __ZNSt3__113move_iteratorIPP13travel_statusEC2B8ue170006ES3_, symObjAddr: 0x8990, symBinAddr: 0x10000967C, symSize: 0x20 }
  - { offsetInCU: 0x1931C, offset: 0x1931C, size: 0x8, addend: 0x0, symName: __ZNSt3__19allocatorIP13travel_statusE9constructB8ue170006IS2_JRKS2_EEEvPT_DpOT0_, symObjAddr: 0x89B0, symBinAddr: 0x10000969C, symSize: 0x28 }
  - { offsetInCU: 0x19372, offset: 0x19372, size: 0x8, addend: 0x0, symName: __ZNSt3__19allocatorI13travel_statusE8allocateB8ue170006Em, symObjAddr: 0x89D8, symBinAddr: 0x1000096C4, symSize: 0x5C }
  - { offsetInCU: 0x193B0, offset: 0x193B0, size: 0x8, addend: 0x0, symName: __ZNSt3__116allocator_traitsINS_9allocatorI13travel_statusEEE8max_sizeB8ue170006IS3_vEEmRKS3_, symObjAddr: 0x8A34, symBinAddr: 0x100009720, symSize: 0x24 }
  - { offsetInCU: 0x193DE, offset: 0x193DE, size: 0x8, addend: 0x0, symName: __ZNKSt3__19allocatorI13travel_statusE8max_sizeB8ue170006Ev, symObjAddr: 0x8A58, symBinAddr: 0x100009744, symSize: 0x20 }
  - { offsetInCU: 0x1940E, offset: 0x1940E, size: 0x8, addend: 0x0, symName: __ZNKSt3__123__move_backward_trivialclB8ue170006IP13travel_statusS3_Li0EEENS_4pairIPT_PT0_EES6_S6_S8_, symObjAddr: 0x8BF4, symBinAddr: 0x1000098E0, symSize: 0x48 }
  - { offsetInCU: 0x19476, offset: 0x19476, size: 0x8, addend: 0x0, symName: __ZNSt3__14pairIPP13travel_statusS3_EC1B8ue170006IRS3_S6_LPv0EEEOT_OT0_, symObjAddr: 0x8D04, symBinAddr: 0x1000099F0, symSize: 0x3C }
  - { offsetInCU: 0x194D4, offset: 0x194D4, size: 0x8, addend: 0x0, symName: __ZNSt3__14pairIPP13travel_statusS3_EC2B8ue170006IRS3_S6_LPv0EEEOT_OT0_, symObjAddr: 0x8D40, symBinAddr: 0x100009A2C, symSize: 0x34 }
  - { offsetInCU: 0x19532, offset: 0x19532, size: 0x8, addend: 0x0, symName: __ZNSt3__114__split_bufferIP13travel_statusRNS_9allocatorIS2_EEEC2EmmS5_, symObjAddr: 0x8D74, symBinAddr: 0x100009A60, symSize: 0xD4 }
  - { offsetInCU: 0x195A5, offset: 0x195A5, size: 0x8, addend: 0x0, symName: __ZNSt3__117__compressed_pairIPP13travel_statusRNS_9allocatorIS2_EEEC1B8ue170006IDnS6_EEOT_OT0_, symObjAddr: 0x8E48, symBinAddr: 0x100009B34, symSize: 0x3C }
  - { offsetInCU: 0x195FD, offset: 0x195FD, size: 0x8, addend: 0x0, symName: __ZNSt3__117__compressed_pairIPP13travel_statusRNS_9allocatorIS2_EEEC2B8ue170006IDnS6_EEOT_OT0_, symObjAddr: 0x8EC4, symBinAddr: 0x100009BB0, symSize: 0x48 }
  - { offsetInCU: 0x19655, offset: 0x19655, size: 0x8, addend: 0x0, symName: __ZNSt3__122__compressed_pair_elemIRNS_9allocatorIP13travel_statusEELi1ELb0EEC2B8ue170006IS5_vEEOT_, symObjAddr: 0x8F0C, symBinAddr: 0x100009BF8, symSize: 0x20 }
  - { offsetInCU: 0x19697, offset: 0x19697, size: 0x8, addend: 0x0, symName: __ZNSt3__19allocatorIP13travel_statusE8allocateB8ue170006Em, symObjAddr: 0x8F2C, symBinAddr: 0x100009C18, symSize: 0x58 }
  - { offsetInCU: 0x196D5, offset: 0x196D5, size: 0x8, addend: 0x0, symName: __ZNSt3__116allocator_traitsINS_9allocatorIP13travel_statusEEE8max_sizeB8ue170006IS4_vEEmRKS4_, symObjAddr: 0x8F84, symBinAddr: 0x100009C70, symSize: 0x24 }
  - { offsetInCU: 0x19703, offset: 0x19703, size: 0x8, addend: 0x0, symName: __ZNKSt3__19allocatorIP13travel_statusE8max_sizeB8ue170006Ev, symObjAddr: 0x8FA8, symBinAddr: 0x100009C94, symSize: 0x14 }
  - { offsetInCU: 0x19729, offset: 0x19729, size: 0x8, addend: 0x0, symName: __ZNSt3__122__allocator_destructorINS_9allocatorI13travel_statusEEEC2B8ue170006ERS3_m, symObjAddr: 0x8FBC, symBinAddr: 0x100009CA8, symSize: 0x2C }
  - { offsetInCU: 0x1976F, offset: 0x1976F, size: 0x8, addend: 0x0, symName: __ZNSt3__110unique_ptrIP13travel_statusNS_22__allocator_destructorINS_9allocatorIS1_EEEEEC2B8ue170006ILb1EvEES2_NS_16__dependent_typeINS_27__unique_ptr_deleter_sfinaeIS6_EEXT_EE20__good_rval_ref_typeE, symObjAddr: 0x8FE8, symBinAddr: 0x100009CD4, symSize: 0x48 }
  - { offsetInCU: 0x197C0, offset: 0x197C0, size: 0x8, addend: 0x0, symName: __ZNSt3__117__compressed_pairIP13travel_statusNS_22__allocator_destructorINS_9allocatorIS1_EEEEEC1B8ue170006IRS2_S6_EEOT_OT0_, symObjAddr: 0x9030, symBinAddr: 0x100009D1C, symSize: 0x3C }
  - { offsetInCU: 0x19818, offset: 0x19818, size: 0x8, addend: 0x0, symName: __ZNSt3__117__compressed_pairIP13travel_statusNS_22__allocator_destructorINS_9allocatorIS1_EEEEEC2B8ue170006IRS2_S6_EEOT_OT0_, symObjAddr: 0x906C, symBinAddr: 0x100009D58, symSize: 0x48 }
  - { offsetInCU: 0x19870, offset: 0x19870, size: 0x8, addend: 0x0, symName: __ZNSt3__122__compressed_pair_elemIP13travel_statusLi0ELb0EEC2B8ue170006IRS2_vEEOT_, symObjAddr: 0x90B4, symBinAddr: 0x100009DA0, symSize: 0x24 }
  - { offsetInCU: 0x198B2, offset: 0x198B2, size: 0x8, addend: 0x0, symName: __ZNSt3__122__compressed_pair_elemINS_22__allocator_destructorINS_9allocatorI13travel_statusEEEELi1ELb0EEC2B8ue170006IS5_vEEOT_, symObjAddr: 0x90D8, symBinAddr: 0x100009DC4, symSize: 0x24 }
  - { offsetInCU: 0x198F4, offset: 0x198F4, size: 0x8, addend: 0x0, symName: __ZNKSt3__117__compressed_pairIP13travel_statusNS_22__allocator_destructorINS_9allocatorIS1_EEEEE5firstB8ue170006Ev, symObjAddr: 0x90FC, symBinAddr: 0x100009DE8, symSize: 0x24 }
  - { offsetInCU: 0x1991A, offset: 0x1991A, size: 0x8, addend: 0x0, symName: __ZNKSt3__122__compressed_pair_elemIP13travel_statusLi0ELb0EE5__getB8ue170006Ev, symObjAddr: 0x9120, symBinAddr: 0x100009E0C, symSize: 0x14 }
  - { offsetInCU: 0x19940, offset: 0x19940, size: 0x8, addend: 0x0, symName: __ZNSt3__117__compressed_pairIP13travel_statusNS_22__allocator_destructorINS_9allocatorIS1_EEEEE5firstB8ue170006Ev, symObjAddr: 0x9134, symBinAddr: 0x100009E20, symSize: 0x24 }
  - { offsetInCU: 0x19966, offset: 0x19966, size: 0x8, addend: 0x0, symName: __ZNSt3__122__compressed_pair_elemIP13travel_statusLi0ELb0EE5__getB8ue170006Ev, symObjAddr: 0x9158, symBinAddr: 0x100009E44, symSize: 0x14 }
  - { offsetInCU: 0x1998C, offset: 0x1998C, size: 0x8, addend: 0x0, symName: __ZNSt3__117__compressed_pairIPP13travel_statusNS_9allocatorIS2_EEE5firstB8ue170006Ev, symObjAddr: 0x916C, symBinAddr: 0x100009E58, symSize: 0x24 }
  - { offsetInCU: 0x199B2, offset: 0x199B2, size: 0x8, addend: 0x0, symName: __ZNSt3__122__compressed_pair_elemIPP13travel_statusLi0ELb0EE5__getB8ue170006Ev, symObjAddr: 0x9190, symBinAddr: 0x100009E7C, symSize: 0x14 }
  - { offsetInCU: 0x199D8, offset: 0x199D8, size: 0x8, addend: 0x0, symName: __ZNSt3__117__compressed_pairIPP13travel_statusRNS_9allocatorIS2_EEE5firstB8ue170006Ev, symObjAddr: 0x91A4, symBinAddr: 0x100009E90, symSize: 0x24 }
  - { offsetInCU: 0x199FE, offset: 0x199FE, size: 0x8, addend: 0x0, symName: __ZNSt3__110unique_ptrIP13travel_statusNS_22__allocator_destructorINS_9allocatorIS1_EEEEED2B8ue170006Ev, symObjAddr: 0x91C8, symBinAddr: 0x100009EB4, symSize: 0x30 }
  - { offsetInCU: 0x19A28, offset: 0x19A28, size: 0x8, addend: 0x0, symName: __ZNSt3__110unique_ptrIP13travel_statusNS_22__allocator_destructorINS_9allocatorIS1_EEEEE5resetB8ue170006ES2_, symObjAddr: 0x91F8, symBinAddr: 0x100009EE4, symSize: 0x78 }
  - { offsetInCU: 0x19A6C, offset: 0x19A6C, size: 0x8, addend: 0x0, symName: __ZNSt3__117__compressed_pairIP13travel_statusNS_22__allocator_destructorINS_9allocatorIS1_EEEEE6secondB8ue170006Ev, symObjAddr: 0x9270, symBinAddr: 0x100009F5C, symSize: 0x28 }
  - { offsetInCU: 0x19A92, offset: 0x19A92, size: 0x8, addend: 0x0, symName: __ZNSt3__122__allocator_destructorINS_9allocatorI13travel_statusEEEclB8ue170006EPS2_, symObjAddr: 0x9298, symBinAddr: 0x100009F84, symSize: 0x34 }
  - { offsetInCU: 0x19AC6, offset: 0x19AC6, size: 0x8, addend: 0x0, symName: __ZNSt3__122__compressed_pair_elemINS_22__allocator_destructorINS_9allocatorI13travel_statusEEEELi1ELb0EE5__getB8ue170006Ev, symObjAddr: 0x92CC, symBinAddr: 0x100009FB8, symSize: 0x14 }
  - { offsetInCU: 0x19AEC, offset: 0x19AEC, size: 0x8, addend: 0x0, symName: __ZNSt3__114__split_bufferIP13travel_statusRNS_9allocatorIS2_EEED2Ev, symObjAddr: 0x92E0, symBinAddr: 0x100009FCC, symSize: 0x8C }
  - { offsetInCU: 0x19B18, offset: 0x19B18, size: 0x8, addend: 0x0, symName: __ZNSt3__114__split_bufferIP13travel_statusRNS_9allocatorIS2_EEE5clearB8ue170006Ev, symObjAddr: 0x936C, symBinAddr: 0x10000A058, symSize: 0x28 }
  - { offsetInCU: 0x19B3E, offset: 0x19B3E, size: 0x8, addend: 0x0, symName: __ZNKSt3__114__split_bufferIP13travel_statusRNS_9allocatorIS2_EEE8capacityB8ue170006Ev, symObjAddr: 0x9394, symBinAddr: 0x10000A080, symSize: 0x40 }
  - { offsetInCU: 0x19B64, offset: 0x19B64, size: 0x8, addend: 0x0, symName: __ZNSt3__114__split_bufferIP13travel_statusRNS_9allocatorIS2_EEE17__destruct_at_endB8ue170006EPS2_, symObjAddr: 0x93D4, symBinAddr: 0x10000A0C0, symSize: 0x2C }
  - { offsetInCU: 0x19B98, offset: 0x19B98, size: 0x8, addend: 0x0, symName: __ZNSt3__114__split_bufferIP13travel_statusRNS_9allocatorIS2_EEE17__destruct_at_endB8ue170006EPS2_NS_17integral_constantIbLb0EEE, symObjAddr: 0x9400, symBinAddr: 0x10000A0EC, symSize: 0x80 }
  - { offsetInCU: 0x19BD8, offset: 0x19BD8, size: 0x8, addend: 0x0, symName: __ZNKSt3__114__split_bufferIP13travel_statusRNS_9allocatorIS2_EEE9__end_capB8ue170006Ev, symObjAddr: 0x9480, symBinAddr: 0x10000A16C, symSize: 0x28 }
  - { offsetInCU: 0x19BFE, offset: 0x19BFE, size: 0x8, addend: 0x0, symName: __ZNKSt3__117__compressed_pairIPP13travel_statusRNS_9allocatorIS2_EEE5firstB8ue170006Ev, symObjAddr: 0x94A8, symBinAddr: 0x10000A194, symSize: 0x24 }
  - { offsetInCU: 0x19C24, offset: 0x19C24, size: 0x8, addend: 0x0, symName: __ZNSt3__19allocatorI13travel_statusE9constructB8ue170006IS1_JRKS1_EEEvPT_DpOT0_, symObjAddr: 0x94CC, symBinAddr: 0x10000A1B8, symSize: 0x30 }
  - { offsetInCU: 0x19C7A, offset: 0x19C7A, size: 0x8, addend: 0x0, symName: __ZNSt3__15dequeI13travel_statusNS_9allocatorIS1_EEE5frontEv, symObjAddr: 0x94FC, symBinAddr: 0x10000A1E8, symSize: 0x58 }
  - { offsetInCU: 0x19CA2, offset: 0x19CA2, size: 0x8, addend: 0x0, symName: __ZNSt3__15dequeI13travel_statusNS_9allocatorIS1_EEE9pop_frontEv, symObjAddr: 0x9554, symBinAddr: 0x10000A240, symSize: 0xDC }
  - { offsetInCU: 0x19CF7, offset: 0x19CF7, size: 0x8, addend: 0x0, symName: __ZNKSt3__15dequeI13travel_statusNS_9allocatorIS1_EEE23__annotate_shrink_frontB8ue170006Emm, symObjAddr: 0x9630, symBinAddr: 0x10000A31C, symSize: 0x70 }
  - { offsetInCU: 0x19D3B, offset: 0x19D3B, size: 0x8, addend: 0x0, symName: __ZNSt3__15dequeI13travel_statusNS_9allocatorIS1_EEE26__maybe_remove_front_spareB8ue170006Eb, symObjAddr: 0x96A0, symBinAddr: 0x10000A38C, symSize: 0xEC }
  - { offsetInCU: 0x19D70, offset: 0x19D70, size: 0x8, addend: 0x0, symName: __ZNKSt3__15dequeI13travel_statusNS_9allocatorIS1_EEE20__front_spare_blocksB8ue170006Ev, symObjAddr: 0x978C, symBinAddr: 0x10000A478, symSize: 0x2C }
  - { offsetInCU: 0x19D96, offset: 0x19D96, size: 0x8, addend: 0x0, symName: __ZNSt3__16vectorIiNS_9allocatorIiEEE19__copy_assign_allocB8ue170006ERKS3_, symObjAddr: 0x97B8, symBinAddr: 0x10000A4A4, symSize: 0x2C }
  - { offsetInCU: 0x19DCB, offset: 0x19DCB, size: 0x8, addend: 0x0, symName: __ZNSt3__16vectorIiNS_9allocatorIiEEE6assignIPiLi0EEEvT_S6_, symObjAddr: 0x97E4, symBinAddr: 0x10000A4D0, symSize: 0x5C }
  - { offsetInCU: 0x19E20, offset: 0x19E20, size: 0x8, addend: 0x0, symName: __ZNSt3__16vectorIiNS_9allocatorIiEEE19__copy_assign_allocB8ue170006ERKS3_NS_17integral_constantIbLb0EEE, symObjAddr: 0x9840, symBinAddr: 0x10000A52C, symSize: 0x14 }
  - { offsetInCU: 0x19E5C, offset: 0x19E5C, size: 0x8, addend: 0x0, symName: __ZNSt3__16vectorIiNS_9allocatorIiEEE18__assign_with_sizeB8ue170006IPiS5_EEvT_T0_l, symObjAddr: 0x9854, symBinAddr: 0x10000A540, symSize: 0x164 }
  - { offsetInCU: 0x19F0C, offset: 0x19F0C, size: 0x8, addend: 0x0, symName: __ZNSt3__16vectorIiNS_9allocatorIiEEE8__appendEmRKi, symObjAddr: 0x9AA0, symBinAddr: 0x10000A78C, symSize: 0x114 }
  - { offsetInCU: 0x19F77, offset: 0x19F77, size: 0x8, addend: 0x0, symName: __ZNSt3__16vectorIiNS_9allocatorIiEEE18__construct_at_endEmRKi, symObjAddr: 0x9BB4, symBinAddr: 0x10000A8A0, symSize: 0xD0 }
  - { offsetInCU: 0x19FF8, offset: 0x19FF8, size: 0x8, addend: 0x0, symName: __ZNSt3__114__split_bufferIiRNS_9allocatorIiEEE18__construct_at_endEmRKi, symObjAddr: 0x9C84, symBinAddr: 0x10000A970, symSize: 0xBC }
  - { offsetInCU: 0x1A055, offset: 0x1A055, size: 0x8, addend: 0x0, symName: __ZNSt3__114__split_bufferIiRNS_9allocatorIiEEE21_ConstructTransactionC1B8ue170006EPPim, symObjAddr: 0x9D40, symBinAddr: 0x10000AA2C, symSize: 0x3C }
  - { offsetInCU: 0x1A09B, offset: 0x1A09B, size: 0x8, addend: 0x0, symName: __ZNSt3__114__split_bufferIiRNS_9allocatorIiEEE21_ConstructTransactionD1B8ue170006Ev, symObjAddr: 0x9D7C, symBinAddr: 0x10000AA68, symSize: 0x2C }
  - { offsetInCU: 0x1A0C5, offset: 0x1A0C5, size: 0x8, addend: 0x0, symName: __ZNSt3__114__split_bufferIiRNS_9allocatorIiEEE21_ConstructTransactionC2B8ue170006EPPim, symObjAddr: 0x9DA8, symBinAddr: 0x10000AA94, symSize: 0x44 }
  - { offsetInCU: 0x1A10B, offset: 0x1A10B, size: 0x8, addend: 0x0, symName: __ZNSt3__114__split_bufferIiRNS_9allocatorIiEEE21_ConstructTransactionD2B8ue170006Ev, symObjAddr: 0x9DEC, symBinAddr: 0x10000AAD8, symSize: 0x20 }
  - { offsetInCU: 0x1A135, offset: 0x1A135, size: 0x8, addend: 0x0, symName: __ZNSt3__16vectorIiNS_9allocatorIiEEEC2EmRKi, symObjAddr: 0x9E0C, symBinAddr: 0x10000AAF8, symSize: 0xDC }
  - { offsetInCU: 0x1A195, offset: 0x1A195, size: 0x8, addend: 0x0, symName: __ZNSt3__16vectorINS0_IiNS_9allocatorIiEEEENS1_IS3_EEE8__appendEmRKS3_, symObjAddr: 0x9EE8, symBinAddr: 0x10000ABD4, symSize: 0x114 }
  - { offsetInCU: 0x1A200, offset: 0x1A200, size: 0x8, addend: 0x0, symName: __ZNSt3__16vectorINS0_IiNS_9allocatorIiEEEENS1_IS3_EEE17__destruct_at_endB8ue170006EPS3_, symObjAddr: 0x9FFC, symBinAddr: 0x10000ACE8, symSize: 0x4C }
  - { offsetInCU: 0x1A244, offset: 0x1A244, size: 0x8, addend: 0x0, symName: __ZNSt3__16vectorINS0_IiNS_9allocatorIiEEEENS1_IS3_EEE9__end_capB8ue170006Ev, symObjAddr: 0xA048, symBinAddr: 0x10000AD34, symSize: 0x28 }
  - { offsetInCU: 0x1A26A, offset: 0x1A26A, size: 0x8, addend: 0x0, symName: __ZNSt3__16vectorINS0_IiNS_9allocatorIiEEEENS1_IS3_EEE18__construct_at_endEmRKS3_, symObjAddr: 0xA070, symBinAddr: 0x10000AD5C, symSize: 0xD0 }
  - { offsetInCU: 0x1A2EB, offset: 0x1A2EB, size: 0x8, addend: 0x0, symName: __ZNKSt3__16vectorINS0_IiNS_9allocatorIiEEEENS1_IS3_EEE11__recommendB8ue170006Em, symObjAddr: 0xA140, symBinAddr: 0x10000AE2C, symSize: 0xB4 }
  - { offsetInCU: 0x1A340, offset: 0x1A340, size: 0x8, addend: 0x0, symName: __ZNSt3__114__split_bufferINS_6vectorIiNS_9allocatorIiEEEERNS2_IS4_EEEC1EmmS6_, symObjAddr: 0xA1F4, symBinAddr: 0x10000AEE0, symSize: 0x44 }
  - { offsetInCU: 0x1A396, offset: 0x1A396, size: 0x8, addend: 0x0, symName: __ZNSt3__114__split_bufferINS_6vectorIiNS_9allocatorIiEEEERNS2_IS4_EEE18__construct_at_endEmRKS4_, symObjAddr: 0xA238, symBinAddr: 0x10000AF24, symSize: 0xBC }
  - { offsetInCU: 0x1A3E9, offset: 0x1A3E9, size: 0x8, addend: 0x0, symName: __ZNSt3__114__split_bufferINS_6vectorIiNS_9allocatorIiEEEERNS2_IS4_EEED1Ev, symObjAddr: 0xA404, symBinAddr: 0x10000B0F0, symSize: 0x2C }
  - { offsetInCU: 0x1A415, offset: 0x1A415, size: 0x8, addend: 0x0, symName: __ZNSt3__117__compressed_pairIPNS_6vectorIiNS_9allocatorIiEEEENS2_IS4_EEE5firstB8ue170006Ev, symObjAddr: 0xA430, symBinAddr: 0x10000B11C, symSize: 0x24 }
  - { offsetInCU: 0x1A43B, offset: 0x1A43B, size: 0x8, addend: 0x0, symName: __ZNSt3__122__compressed_pair_elemIPNS_6vectorIiNS_9allocatorIiEEEELi0ELb0EE5__getB8ue170006Ev, symObjAddr: 0xA454, symBinAddr: 0x10000B140, symSize: 0x14 }
  - { offsetInCU: 0x1A47A, offset: 0x1A47A, size: 0x8, addend: 0x0, symName: __ZNSt3__16vectorINS0_IiNS_9allocatorIiEEEENS1_IS3_EEE21_ConstructTransactionC1B8ue170006ERS5_m, symObjAddr: 0xA468, symBinAddr: 0x10000B154, symSize: 0x3C }
  - { offsetInCU: 0x1A4C2, offset: 0x1A4C2, size: 0x8, addend: 0x0, symName: __ZNSt3__116allocator_traitsINS_9allocatorINS_6vectorIiNS1_IiEEEEEEE9constructB8ue170006IS4_JRKS4_EvEEvRS5_PT_DpOT0_, symObjAddr: 0xA4A4, symBinAddr: 0x10000B190, symSize: 0x34 }
  - { offsetInCU: 0x1A519, offset: 0x1A519, size: 0x8, addend: 0x0, symName: __ZNSt3__16vectorINS0_IiNS_9allocatorIiEEEENS1_IS3_EEE21_ConstructTransactionD1B8ue170006Ev, symObjAddr: 0xA4D8, symBinAddr: 0x10000B1C4, symSize: 0x2C }
  - { offsetInCU: 0x1A543, offset: 0x1A543, size: 0x8, addend: 0x0, symName: __ZNSt3__16vectorINS0_IiNS_9allocatorIiEEEENS1_IS3_EEE21_ConstructTransactionC2B8ue170006ERS5_m, symObjAddr: 0xA504, symBinAddr: 0x10000B1F0, symSize: 0x4C }
  - { offsetInCU: 0x1A58B, offset: 0x1A58B, size: 0x8, addend: 0x0, symName: __ZNSt3__19allocatorINS_6vectorIiNS0_IiEEEEE9constructB8ue170006IS3_JRKS3_EEEvPT_DpOT0_, symObjAddr: 0xA550, symBinAddr: 0x10000B23C, symSize: 0x30 }
  - { offsetInCU: 0x1A5E1, offset: 0x1A5E1, size: 0x8, addend: 0x0, symName: __ZNSt3__16vectorINS0_IiNS_9allocatorIiEEEENS1_IS3_EEE21_ConstructTransactionD2B8ue170006Ev, symObjAddr: 0xA580, symBinAddr: 0x10000B26C, symSize: 0x20 }
  - { offsetInCU: 0x1A60B, offset: 0x1A60B, size: 0x8, addend: 0x0, symName: __ZNKSt3__16vectorINS0_IiNS_9allocatorIiEEEENS1_IS3_EEE8max_sizeEv, symObjAddr: 0xA5A0, symBinAddr: 0x10000B28C, symSize: 0x60 }
  - { offsetInCU: 0x1A633, offset: 0x1A633, size: 0x8, addend: 0x0, symName: __ZNKSt3__16vectorINS0_IiNS_9allocatorIiEEEENS1_IS3_EEE20__throw_length_errorB8ue170006Ev, symObjAddr: 0xA600, symBinAddr: 0x10000B2EC, symSize: 0x1C }
  - { offsetInCU: 0x1A663, offset: 0x1A663, size: 0x8, addend: 0x0, symName: __ZNSt3__116allocator_traitsINS_9allocatorINS_6vectorIiNS1_IiEEEEEEE8max_sizeB8ue170006IS5_vEEmRKS5_, symObjAddr: 0xA61C, symBinAddr: 0x10000B308, symSize: 0x24 }
  - { offsetInCU: 0x1A691, offset: 0x1A691, size: 0x8, addend: 0x0, symName: __ZNKSt3__16vectorINS0_IiNS_9allocatorIiEEEENS1_IS3_EEE7__allocB8ue170006Ev, symObjAddr: 0xA640, symBinAddr: 0x10000B32C, symSize: 0x28 }
  - { offsetInCU: 0x1A6B7, offset: 0x1A6B7, size: 0x8, addend: 0x0, symName: __ZNKSt3__19allocatorINS_6vectorIiNS0_IiEEEEE8max_sizeB8ue170006Ev, symObjAddr: 0xA668, symBinAddr: 0x10000B354, symSize: 0x18 }
  - { offsetInCU: 0x1A6DD, offset: 0x1A6DD, size: 0x8, addend: 0x0, symName: __ZNKSt3__117__compressed_pairIPNS_6vectorIiNS_9allocatorIiEEEENS2_IS4_EEE6secondB8ue170006Ev, symObjAddr: 0xA680, symBinAddr: 0x10000B36C, symSize: 0x24 }
  - { offsetInCU: 0x1A703, offset: 0x1A703, size: 0x8, addend: 0x0, symName: __ZNKSt3__122__compressed_pair_elemINS_9allocatorINS_6vectorIiNS1_IiEEEEEELi1ELb1EE5__getB8ue170006Ev, symObjAddr: 0xA6A4, symBinAddr: 0x10000B390, symSize: 0x14 }
  - { offsetInCU: 0x1A729, offset: 0x1A729, size: 0x8, addend: 0x0, symName: __ZNSt3__114__split_bufferINS_6vectorIiNS_9allocatorIiEEEERNS2_IS4_EEEC2EmmS6_, symObjAddr: 0xA6B8, symBinAddr: 0x10000B3A4, symSize: 0xE0 }
  - { offsetInCU: 0x1A79C, offset: 0x1A79C, size: 0x8, addend: 0x0, symName: __ZNSt3__117__compressed_pairIPNS_6vectorIiNS_9allocatorIiEEEERNS2_IS4_EEEC1B8ue170006IDnS7_EEOT_OT0_, symObjAddr: 0xA798, symBinAddr: 0x10000B484, symSize: 0x3C }
  - { offsetInCU: 0x1A7F4, offset: 0x1A7F4, size: 0x8, addend: 0x0, symName: __ZNSt3__114__split_bufferINS_6vectorIiNS_9allocatorIiEEEERNS2_IS4_EEE7__allocB8ue170006Ev, symObjAddr: 0xA814, symBinAddr: 0x10000B500, symSize: 0x28 }
  - { offsetInCU: 0x1A81A, offset: 0x1A81A, size: 0x8, addend: 0x0, symName: __ZNSt3__114__split_bufferINS_6vectorIiNS_9allocatorIiEEEERNS2_IS4_EEE9__end_capB8ue170006Ev, symObjAddr: 0xA83C, symBinAddr: 0x10000B528, symSize: 0x28 }
  - { offsetInCU: 0x1A840, offset: 0x1A840, size: 0x8, addend: 0x0, symName: __ZNSt3__117__compressed_pairIPNS_6vectorIiNS_9allocatorIiEEEERNS2_IS4_EEEC2B8ue170006IDnS7_EEOT_OT0_, symObjAddr: 0xA864, symBinAddr: 0x10000B550, symSize: 0x48 }
  - { offsetInCU: 0x1A898, offset: 0x1A898, size: 0x8, addend: 0x0, symName: __ZNSt3__122__compressed_pair_elemIRNS_9allocatorINS_6vectorIiNS1_IiEEEEEELi1ELb0EEC2B8ue170006IS6_vEEOT_, symObjAddr: 0xA8AC, symBinAddr: 0x10000B598, symSize: 0x20 }
  - { offsetInCU: 0x1A8DA, offset: 0x1A8DA, size: 0x8, addend: 0x0, symName: __ZNSt3__19allocatorINS_6vectorIiNS0_IiEEEEE8allocateB8ue170006Em, symObjAddr: 0xA8CC, symBinAddr: 0x10000B5B8, symSize: 0x5C }
  - { offsetInCU: 0x1A90E, offset: 0x1A90E, size: 0x8, addend: 0x0, symName: __ZNSt3__117__compressed_pairIPNS_6vectorIiNS_9allocatorIiEEEERNS2_IS4_EEE6secondB8ue170006Ev, symObjAddr: 0xA928, symBinAddr: 0x10000B614, symSize: 0x28 }
  - { offsetInCU: 0x1A934, offset: 0x1A934, size: 0x8, addend: 0x0, symName: __ZNSt3__122__compressed_pair_elemIRNS_9allocatorINS_6vectorIiNS1_IiEEEEEELi1ELb0EE5__getB8ue170006Ev, symObjAddr: 0xA950, symBinAddr: 0x10000B63C, symSize: 0x18 }
  - { offsetInCU: 0x1A95A, offset: 0x1A95A, size: 0x8, addend: 0x0, symName: __ZNSt3__117__compressed_pairIPNS_6vectorIiNS_9allocatorIiEEEERNS2_IS4_EEE5firstB8ue170006Ev, symObjAddr: 0xA968, symBinAddr: 0x10000B654, symSize: 0x24 }
  - { offsetInCU: 0x1A98A, offset: 0x1A98A, size: 0x8, addend: 0x0, symName: __ZNSt3__114__split_bufferINS_6vectorIiNS_9allocatorIiEEEERNS2_IS4_EEE21_ConstructTransactionC1B8ue170006EPPS4_m, symObjAddr: 0xA98C, symBinAddr: 0x10000B678, symSize: 0x3C }
  - { offsetInCU: 0x1A9D0, offset: 0x1A9D0, size: 0x8, addend: 0x0, symName: __ZNSt3__114__split_bufferINS_6vectorIiNS_9allocatorIiEEEERNS2_IS4_EEE21_ConstructTransactionD1B8ue170006Ev, symObjAddr: 0xA9C8, symBinAddr: 0x10000B6B4, symSize: 0x2C }
  - { offsetInCU: 0x1A9FA, offset: 0x1A9FA, size: 0x8, addend: 0x0, symName: __ZNSt3__114__split_bufferINS_6vectorIiNS_9allocatorIiEEEERNS2_IS4_EEE21_ConstructTransactionC2B8ue170006EPPS4_m, symObjAddr: 0xA9F4, symBinAddr: 0x10000B6E0, symSize: 0x4C }
  - { offsetInCU: 0x1AA40, offset: 0x1AA40, size: 0x8, addend: 0x0, symName: __ZNSt3__114__split_bufferINS_6vectorIiNS_9allocatorIiEEEERNS2_IS4_EEE21_ConstructTransactionD2B8ue170006Ev, symObjAddr: 0xAA40, symBinAddr: 0x10000B72C, symSize: 0x20 }
  - { offsetInCU: 0x1AA6A, offset: 0x1AA6A, size: 0x8, addend: 0x0, symName: __ZNSt3__116reverse_iteratorIPNS_6vectorIiNS_9allocatorIiEEEEEC1B8ue170006ES5_, symObjAddr: 0xAB8C, symBinAddr: 0x10000B878, symSize: 0x34 }
  - { offsetInCU: 0x1AAA2, offset: 0x1AAA2, size: 0x8, addend: 0x0, symName: __ZNKSt3__116reverse_iteratorIPNS_6vectorIiNS_9allocatorIiEEEEE4baseB8ue170006Ev, symObjAddr: 0xABC0, symBinAddr: 0x10000B8AC, symSize: 0x18 }
  - { offsetInCU: 0x1AAC8, offset: 0x1AAC8, size: 0x8, addend: 0x0, symName: __ZNKSt3__16vectorINS0_IiNS_9allocatorIiEEEENS1_IS3_EEE14__annotate_newB8ue170006Em, symObjAddr: 0xAC14, symBinAddr: 0x10000B900, symSize: 0xC8 }
  - { offsetInCU: 0x1AAFD, offset: 0x1AAFD, size: 0x8, addend: 0x0, symName: __ZNSt3__129_AllocatorDestroyRangeReverseINS_9allocatorINS_6vectorIiNS1_IiEEEEEENS_16reverse_iteratorIPS4_EEEC1B8ue170006ERS5_RS8_SB_, symObjAddr: 0xAD28, symBinAddr: 0x10000BA14, symSize: 0x44 }
  - { offsetInCU: 0x1AB54, offset: 0x1AB54, size: 0x8, addend: 0x0, symName: __ZNSt3__116allocator_traitsINS_9allocatorINS_6vectorIiNS1_IiEEEEEEE9constructB8ue170006IS4_JS4_EvEEvRS5_PT_DpOT0_, symObjAddr: 0xADB4, symBinAddr: 0x10000BAA0, symSize: 0x34 }
  - { offsetInCU: 0x1ABAB, offset: 0x1ABAB, size: 0x8, addend: 0x0, symName: __ZNKSt3__116reverse_iteratorIPNS_6vectorIiNS_9allocatorIiEEEEEdeB8ue170006Ev, symObjAddr: 0xAE0C, symBinAddr: 0x10000BAF8, symSize: 0x28 }
  - { offsetInCU: 0x1ABDF, offset: 0x1ABDF, size: 0x8, addend: 0x0, symName: __ZNSt3__116reverse_iteratorIPNS_6vectorIiNS_9allocatorIiEEEEEppB8ue170006Ev, symObjAddr: 0xAE34, symBinAddr: 0x10000BB20, symSize: 0x20 }
  - { offsetInCU: 0x1AC05, offset: 0x1AC05, size: 0x8, addend: 0x0, symName: __ZNSt3__128__exception_guard_exceptionsINS_29_AllocatorDestroyRangeReverseINS_9allocatorINS_6vectorIiNS2_IiEEEEEENS_16reverse_iteratorIPS5_EEEEE10__completeB8ue170006Ev, symObjAddr: 0xAE54, symBinAddr: 0x10000BB40, symSize: 0x1C }
  - { offsetInCU: 0x1AC2B, offset: 0x1AC2B, size: 0x8, addend: 0x0, symName: __ZNSt3__128__exception_guard_exceptionsINS_29_AllocatorDestroyRangeReverseINS_9allocatorINS_6vectorIiNS2_IiEEEEEENS_16reverse_iteratorIPS5_EEEEED1B8ue170006Ev, symObjAddr: 0xAE70, symBinAddr: 0x10000BB5C, symSize: 0x2C }
  - { offsetInCU: 0x1AC55, offset: 0x1AC55, size: 0x8, addend: 0x0, symName: __ZNSt3__128__exception_guard_exceptionsINS_29_AllocatorDestroyRangeReverseINS_9allocatorINS_6vectorIiNS2_IiEEEEEENS_16reverse_iteratorIPS5_EEEEEC1B8ue170006ESA_, symObjAddr: 0xAE9C, symBinAddr: 0x10000BB88, symSize: 0x34 }
  - { offsetInCU: 0x1AC8E, offset: 0x1AC8E, size: 0x8, addend: 0x0, symName: __ZNSt3__128__exception_guard_exceptionsINS_29_AllocatorDestroyRangeReverseINS_9allocatorINS_6vectorIiNS2_IiEEEEEENS_16reverse_iteratorIPS5_EEEEEC2B8ue170006ESA_, symObjAddr: 0xAED0, symBinAddr: 0x10000BBBC, symSize: 0x30 }
  - { offsetInCU: 0x1ACC7, offset: 0x1ACC7, size: 0x8, addend: 0x0, symName: __ZNSt3__129_AllocatorDestroyRangeReverseINS_9allocatorINS_6vectorIiNS1_IiEEEEEENS_16reverse_iteratorIPS4_EEEC2B8ue170006ERS5_RS8_SB_, symObjAddr: 0xAF00, symBinAddr: 0x10000BBEC, symSize: 0x38 }
  - { offsetInCU: 0x1AD1E, offset: 0x1AD1E, size: 0x8, addend: 0x0, symName: __ZNSt3__19allocatorINS_6vectorIiNS0_IiEEEEE9constructB8ue170006IS3_JS3_EEEvPT_DpOT0_, symObjAddr: 0xAF38, symBinAddr: 0x10000BC24, symSize: 0x30 }
  - { offsetInCU: 0x1AD74, offset: 0x1AD74, size: 0x8, addend: 0x0, symName: __ZNSt3__16vectorIiNS_9allocatorIiEEEC1B8ue170006EOS3_, symObjAddr: 0xAF68, symBinAddr: 0x10000BC54, symSize: 0x34 }
  - { offsetInCU: 0x1ADAF, offset: 0x1ADAF, size: 0x8, addend: 0x0, symName: __ZNSt3__16vectorIiNS_9allocatorIiEEEC2B8ue170006EOS3_, symObjAddr: 0xAF9C, symBinAddr: 0x10000BC88, symSize: 0xC4 }
  - { offsetInCU: 0x1ADEF, offset: 0x1ADEF, size: 0x8, addend: 0x0, symName: __ZNSt3__119__to_address_helperINS_16reverse_iteratorIPNS_6vectorIiNS_9allocatorIiEEEEEEvE6__callB8ue170006ERKS7_, symObjAddr: 0xB060, symBinAddr: 0x10000BD4C, symSize: 0x38 }
  - { offsetInCU: 0x1AE12, offset: 0x1AE12, size: 0x8, addend: 0x0, symName: __ZNKSt3__116reverse_iteratorIPNS_6vectorIiNS_9allocatorIiEEEEEptB8ue170006Ev, symObjAddr: 0xB098, symBinAddr: 0x10000BD84, symSize: 0x24 }
  - { offsetInCU: 0x1AE38, offset: 0x1AE38, size: 0x8, addend: 0x0, symName: __ZNSt3__128__exception_guard_exceptionsINS_29_AllocatorDestroyRangeReverseINS_9allocatorINS_6vectorIiNS2_IiEEEEEENS_16reverse_iteratorIPS5_EEEEED2B8ue170006Ev, symObjAddr: 0xB0BC, symBinAddr: 0x10000BDA8, symSize: 0x50 }
  - { offsetInCU: 0x1AE62, offset: 0x1AE62, size: 0x8, addend: 0x0, symName: __ZNKSt3__129_AllocatorDestroyRangeReverseINS_9allocatorINS_6vectorIiNS1_IiEEEEEENS_16reverse_iteratorIPS4_EEEclB8ue170006Ev, symObjAddr: 0xB10C, symBinAddr: 0x10000BDF8, symSize: 0xB4 }
  - { offsetInCU: 0x1AE89, offset: 0x1AE89, size: 0x8, addend: 0x0, symName: __ZNSt3__116reverse_iteratorINS0_IPNS_6vectorIiNS_9allocatorIiEEEEEEEC1B8ue170006ES6_, symObjAddr: 0xB230, symBinAddr: 0x10000BF1C, symSize: 0x3C }
  - { offsetInCU: 0x1AEC1, offset: 0x1AEC1, size: 0x8, addend: 0x0, symName: __ZNSt3__116reverse_iteratorINS0_IPNS_6vectorIiNS_9allocatorIiEEEEEEEppB8ue170006Ev, symObjAddr: 0xB2F0, symBinAddr: 0x10000BFDC, symSize: 0x30 }
  - { offsetInCU: 0x1AEE7, offset: 0x1AEE7, size: 0x8, addend: 0x0, symName: __ZNKSt3__116reverse_iteratorINS0_IPNS_6vectorIiNS_9allocatorIiEEEEEEE4baseB8ue170006Ev, symObjAddr: 0xB320, symBinAddr: 0x10000C00C, symSize: 0x24 }
  - { offsetInCU: 0x1AF12, offset: 0x1AF12, size: 0x8, addend: 0x0, symName: __ZNSt3__119__to_address_helperINS_16reverse_iteratorINS1_IPNS_6vectorIiNS_9allocatorIiEEEEEEEEvE6__callB8ue170006ERKS8_, symObjAddr: 0xB344, symBinAddr: 0x10000C030, symSize: 0x38 }
  - { offsetInCU: 0x1AF35, offset: 0x1AF35, size: 0x8, addend: 0x0, symName: __ZNKSt3__116reverse_iteratorINS0_IPNS_6vectorIiNS_9allocatorIiEEEEEEEptB8ue170006Ev, symObjAddr: 0xB37C, symBinAddr: 0x10000C068, symSize: 0x24 }
  - { offsetInCU: 0x1AF5B, offset: 0x1AF5B, size: 0x8, addend: 0x0, symName: __ZNKSt3__116reverse_iteratorINS0_IPNS_6vectorIiNS_9allocatorIiEEEEEEEdeB8ue170006Ev, symObjAddr: 0xB3A0, symBinAddr: 0x10000C08C, symSize: 0x34 }
  - { offsetInCU: 0x1AF8F, offset: 0x1AF8F, size: 0x8, addend: 0x0, symName: __ZNSt3__116reverse_iteratorIPNS_6vectorIiNS_9allocatorIiEEEEEmmB8ue170006Ev, symObjAddr: 0xB3D4, symBinAddr: 0x10000C0C0, symSize: 0x20 }
  - { offsetInCU: 0x1AFB5, offset: 0x1AFB5, size: 0x8, addend: 0x0, symName: __ZNSt3__116reverse_iteratorINS0_IPNS_6vectorIiNS_9allocatorIiEEEEEEEC2B8ue170006ES6_, symObjAddr: 0xB3F4, symBinAddr: 0x10000C0E0, symSize: 0x2C }
  - { offsetInCU: 0x1AFED, offset: 0x1AFED, size: 0x8, addend: 0x0, symName: __ZNSt3__116reverse_iteratorIPNS_6vectorIiNS_9allocatorIiEEEEEC2B8ue170006ES5_, symObjAddr: 0xB420, symBinAddr: 0x10000C10C, symSize: 0x28 }
  - { offsetInCU: 0x1B025, offset: 0x1B025, size: 0x8, addend: 0x0, symName: __ZNSt3__114__split_bufferINS_6vectorIiNS_9allocatorIiEEEERNS2_IS4_EEED2Ev, symObjAddr: 0xB448, symBinAddr: 0x10000C134, symSize: 0x8C }
  - { offsetInCU: 0x1B051, offset: 0x1B051, size: 0x8, addend: 0x0, symName: __ZNSt3__114__split_bufferINS_6vectorIiNS_9allocatorIiEEEERNS2_IS4_EEE5clearB8ue170006Ev, symObjAddr: 0xB4D4, symBinAddr: 0x10000C1C0, symSize: 0x28 }
  - { offsetInCU: 0x1B077, offset: 0x1B077, size: 0x8, addend: 0x0, symName: __ZNKSt3__114__split_bufferINS_6vectorIiNS_9allocatorIiEEEERNS2_IS4_EEE8capacityB8ue170006Ev, symObjAddr: 0xB4FC, symBinAddr: 0x10000C1E8, symSize: 0x40 }
  - { offsetInCU: 0x1B09D, offset: 0x1B09D, size: 0x8, addend: 0x0, symName: __ZNSt3__114__split_bufferINS_6vectorIiNS_9allocatorIiEEEERNS2_IS4_EEE17__destruct_at_endB8ue170006EPS4_, symObjAddr: 0xB53C, symBinAddr: 0x10000C228, symSize: 0x2C }
  - { offsetInCU: 0x1B0D1, offset: 0x1B0D1, size: 0x8, addend: 0x0, symName: __ZNSt3__114__split_bufferINS_6vectorIiNS_9allocatorIiEEEERNS2_IS4_EEE17__destruct_at_endB8ue170006EPS4_NS_17integral_constantIbLb0EEE, symObjAddr: 0xB568, symBinAddr: 0x10000C254, symSize: 0x80 }
  - { offsetInCU: 0x1B111, offset: 0x1B111, size: 0x8, addend: 0x0, symName: __ZNKSt3__114__split_bufferINS_6vectorIiNS_9allocatorIiEEEERNS2_IS4_EEE9__end_capB8ue170006Ev, symObjAddr: 0xB5E8, symBinAddr: 0x10000C2D4, symSize: 0x28 }
  - { offsetInCU: 0x1B137, offset: 0x1B137, size: 0x8, addend: 0x0, symName: __ZNKSt3__117__compressed_pairIPNS_6vectorIiNS_9allocatorIiEEEERNS2_IS4_EEE5firstB8ue170006Ev, symObjAddr: 0xB610, symBinAddr: 0x10000C2FC, symSize: 0x24 }
  - { offsetInCU: 0x1B15D, offset: 0x1B15D, size: 0x8, addend: 0x0, symName: __ZNKSt3__16vectorINS0_IiNS_9allocatorIiEEEENS1_IS3_EEE17__annotate_shrinkB8ue170006Em, symObjAddr: 0xB634, symBinAddr: 0x10000C320, symSize: 0xD0 }
  - { offsetInCU: 0x1B192, offset: 0x1B192, size: 0x8, addend: 0x0, symName: __ZNKSt3__16vectorIbNS_9allocatorIbEEE4sizeB8ue170006Ev, symObjAddr: 0xB704, symBinAddr: 0x10000C3F0, symSize: 0x18 }
  - { offsetInCU: 0x1B1B8, offset: 0x1B1B8, size: 0x8, addend: 0x0, symName: __ZNSt3__114__bit_iteratorINS_6vectorIbNS_9allocatorIbEEEELb0ELm0EEC1B8ue170006Ev, symObjAddr: 0xB71C, symBinAddr: 0x10000C408, symSize: 0x2C }
  - { offsetInCU: 0x1B1E2, offset: 0x1B1E2, size: 0x8, addend: 0x0, symName: __ZNKSt3__16vectorIbNS_9allocatorIbEEE8capacityB8ue170006Ev, symObjAddr: 0xB748, symBinAddr: 0x10000C434, symSize: 0x2C }
  - { offsetInCU: 0x1B208, offset: 0x1B208, size: 0x8, addend: 0x0, symName: __ZNSt3__16vectorIbNS_9allocatorIbEEE3endB8ue170006Ev, symObjAddr: 0xB774, symBinAddr: 0x10000C460, symSize: 0x30 }
  - { offsetInCU: 0x1B22E, offset: 0x1B22E, size: 0x8, addend: 0x0, symName: __ZNSt3__114__bit_iteratorINS_6vectorIbNS_9allocatorIbEEEELb0ELm0EEaSB8ue170006ERKS5_, symObjAddr: 0xB7A4, symBinAddr: 0x10000C490, symSize: 0x30 }
  - { offsetInCU: 0x1B263, offset: 0x1B263, size: 0x8, addend: 0x0, symName: __ZNKSt3__16vectorIbNS_9allocatorIbEEE13get_allocatorB8ue170006Ev, symObjAddr: 0xB7D4, symBinAddr: 0x10000C4C0, symSize: 0x30 }
  - { offsetInCU: 0x1B289, offset: 0x1B289, size: 0x8, addend: 0x0, symName: __ZNSt3__16vectorIbNS_9allocatorIbEEEC1B8ue170006ERKS2_, symObjAddr: 0xB804, symBinAddr: 0x10000C4F0, symSize: 0x34 }
  - { offsetInCU: 0x1B2C4, offset: 0x1B2C4, size: 0x8, addend: 0x0, symName: __ZNSt3__16vectorIbNS_9allocatorIbEEE7reserveEm, symObjAddr: 0xB838, symBinAddr: 0x10000C524, symSize: 0x118 }
  - { offsetInCU: 0x1B311, offset: 0x1B311, size: 0x8, addend: 0x0, symName: __ZNKSt3__16vectorIbNS_9allocatorIbEEE11__recommendB8ue170006Em, symObjAddr: 0xB950, symBinAddr: 0x10000C63C, symSize: 0xCC }
  - { offsetInCU: 0x1B366, offset: 0x1B366, size: 0x8, addend: 0x0, symName: __ZNKSt3__16vectorIbNS_9allocatorIbEEE6cbeginB8ue170006Ev, symObjAddr: 0xBAF0, symBinAddr: 0x10000C7DC, symSize: 0x38 }
  - { offsetInCU: 0x1B38C, offset: 0x1B38C, size: 0x8, addend: 0x0, symName: __ZNKSt3__16vectorIbNS_9allocatorIbEEE4cendB8ue170006Ev, symObjAddr: 0xBB28, symBinAddr: 0x10000C814, symSize: 0x38 }
  - { offsetInCU: 0x1B3B2, offset: 0x1B3B2, size: 0x8, addend: 0x0, symName: __ZNSt3__16vectorIbNS_9allocatorIbEEE5beginB8ue170006Ev, symObjAddr: 0xBB60, symBinAddr: 0x10000C84C, symSize: 0x30 }
  - { offsetInCU: 0x1B3D8, offset: 0x1B3D8, size: 0x8, addend: 0x0, symName: __ZNSt3__16vectorIbNS_9allocatorIbEEE4swapERS3_, symObjAddr: 0xBB90, symBinAddr: 0x10000C87C, symSize: 0x84 }
  - { offsetInCU: 0x1B40F, offset: 0x1B40F, size: 0x8, addend: 0x0, symName: __ZNSt3__114__bit_iteratorINS_6vectorIbNS_9allocatorIbEEEELb0ELm0EEC1B8ue170006ERKS5_, symObjAddr: 0xBCA8, symBinAddr: 0x10000C994, symSize: 0x34 }
  - { offsetInCU: 0x1B448, offset: 0x1B448, size: 0x8, addend: 0x0, symName: __ZNSt3__114__bit_iteratorINS_6vectorIbNS_9allocatorIbEEEELb0ELm0EEC2B8ue170006Ev, symObjAddr: 0xBCDC, symBinAddr: 0x10000C9C8, symSize: 0x1C }
  - { offsetInCU: 0x1B472, offset: 0x1B472, size: 0x8, addend: 0x0, symName: __ZNSt3__16vectorIbNS_9allocatorIbEEE26__internal_cap_to_externalB8ue170006Em, symObjAddr: 0xBCF8, symBinAddr: 0x10000C9E4, symSize: 0x18 }
  - { offsetInCU: 0x1B496, offset: 0x1B496, size: 0x8, addend: 0x0, symName: __ZNKSt3__16vectorIbNS_9allocatorIbEEE5__capB8ue170006Ev, symObjAddr: 0xBD10, symBinAddr: 0x10000C9FC, symSize: 0x28 }
  - { offsetInCU: 0x1B4BC, offset: 0x1B4BC, size: 0x8, addend: 0x0, symName: __ZNKSt3__117__compressed_pairImNS_9allocatorImEEE5firstB8ue170006Ev, symObjAddr: 0xBD38, symBinAddr: 0x10000CA24, symSize: 0x24 }
  - { offsetInCU: 0x1B4E2, offset: 0x1B4E2, size: 0x8, addend: 0x0, symName: __ZNSt3__16vectorIbNS_9allocatorIbEEE11__make_iterB8ue170006Em, symObjAddr: 0xBD5C, symBinAddr: 0x10000CA48, symSize: 0x64 }
  - { offsetInCU: 0x1B517, offset: 0x1B517, size: 0x8, addend: 0x0, symName: __ZNSt3__114__bit_iteratorINS_6vectorIbNS_9allocatorIbEEEELb0ELm0EEC1B8ue170006EPmj, symObjAddr: 0xBDC0, symBinAddr: 0x10000CAAC, symSize: 0x3C }
  - { offsetInCU: 0x1B55F, offset: 0x1B55F, size: 0x8, addend: 0x0, symName: __ZNSt3__114__bit_iteratorINS_6vectorIbNS_9allocatorIbEEEELb0ELm0EEC2B8ue170006EPmj, symObjAddr: 0xBDFC, symBinAddr: 0x10000CAE8, symSize: 0x2C }
  - { offsetInCU: 0x1B5A7, offset: 0x1B5A7, size: 0x8, addend: 0x0, symName: __ZNKSt3__16vectorIbNS_9allocatorIbEEE7__allocB8ue170006Ev, symObjAddr: 0xBE28, symBinAddr: 0x10000CB14, symSize: 0x28 }
  - { offsetInCU: 0x1B5CD, offset: 0x1B5CD, size: 0x8, addend: 0x0, symName: __ZNSt3__19allocatorIbEC1B8ue170006ImEERKNS0_IT_EE, symObjAddr: 0xBE50, symBinAddr: 0x10000CB3C, symSize: 0x34 }
  - { offsetInCU: 0x1B60A, offset: 0x1B60A, size: 0x8, addend: 0x0, symName: __ZNKSt3__117__compressed_pairImNS_9allocatorImEEE6secondB8ue170006Ev, symObjAddr: 0xBE84, symBinAddr: 0x10000CB70, symSize: 0x24 }
  - { offsetInCU: 0x1B630, offset: 0x1B630, size: 0x8, addend: 0x0, symName: __ZNKSt3__122__compressed_pair_elemINS_9allocatorImEELi1ELb1EE5__getB8ue170006Ev, symObjAddr: 0xBEA8, symBinAddr: 0x10000CB94, symSize: 0x14 }
  - { offsetInCU: 0x1B656, offset: 0x1B656, size: 0x8, addend: 0x0, symName: __ZNSt3__19allocatorIbEC2B8ue170006ImEERKNS0_IT_EE, symObjAddr: 0xBEBC, symBinAddr: 0x10000CBA8, symSize: 0x30 }
  - { offsetInCU: 0x1B693, offset: 0x1B693, size: 0x8, addend: 0x0, symName: __ZNSt3__116__non_trivial_ifILb1ENS_9allocatorIbEEEC2B8ue170006Ev, symObjAddr: 0xBEEC, symBinAddr: 0x10000CBD8, symSize: 0x14 }
  - { offsetInCU: 0x1B6BD, offset: 0x1B6BD, size: 0x8, addend: 0x0, symName: __ZNSt3__16vectorIbNS_9allocatorIbEEEC2B8ue170006ERKS2_, symObjAddr: 0xBF00, symBinAddr: 0x10000CBEC, symSize: 0x6C }
  - { offsetInCU: 0x1B6FD, offset: 0x1B6FD, size: 0x8, addend: 0x0, symName: __ZNSt3__19allocatorImEC1B8ue170006IbEERKNS0_IT_EE, symObjAddr: 0xBF6C, symBinAddr: 0x10000CC58, symSize: 0x34 }
  - { offsetInCU: 0x1B73F, offset: 0x1B73F, size: 0x8, addend: 0x0, symName: __ZNSt3__117__compressed_pairImNS_9allocatorImEEEC1B8ue170006IiS2_EEOT_OT0_, symObjAddr: 0xBFA0, symBinAddr: 0x10000CC8C, symSize: 0x3C }
  - { offsetInCU: 0x1B797, offset: 0x1B797, size: 0x8, addend: 0x0, symName: __ZNSt3__19allocatorImEC2B8ue170006IbEERKNS0_IT_EE, symObjAddr: 0xBFDC, symBinAddr: 0x10000CCC8, symSize: 0x30 }
  - { offsetInCU: 0x1B7D4, offset: 0x1B7D4, size: 0x8, addend: 0x0, symName: __ZNSt3__117__compressed_pairImNS_9allocatorImEEEC2B8ue170006IiS2_EEOT_OT0_, symObjAddr: 0xC00C, symBinAddr: 0x10000CCF8, symSize: 0x44 }
  - { offsetInCU: 0x1B82C, offset: 0x1B82C, size: 0x8, addend: 0x0, symName: __ZNSt3__122__compressed_pair_elemINS_9allocatorImEELi1ELb1EEC2B8ue170006IS2_vEEOT_, symObjAddr: 0xC050, symBinAddr: 0x10000CD3C, symSize: 0x18 }
  - { offsetInCU: 0x1B86E, offset: 0x1B86E, size: 0x8, addend: 0x0, symName: __ZNKSt3__16vectorIbNS_9allocatorIbEEE8max_sizeEv, symObjAddr: 0xC068, symBinAddr: 0x10000CD54, symSize: 0x7C }
  - { offsetInCU: 0x1B8B4, offset: 0x1B8B4, size: 0x8, addend: 0x0, symName: __ZNKSt3__16vectorIbNS_9allocatorIbEEE20__throw_length_errorB8ue170006Ev, symObjAddr: 0xC0E4, symBinAddr: 0x10000CDD0, symSize: 0x1C }
  - { offsetInCU: 0x1B8DA, offset: 0x1B8DA, size: 0x8, addend: 0x0, symName: __ZNSt3__16vectorIbNS_9allocatorIbEEE11__vallocateB8ue170006Em, symObjAddr: 0xC100, symBinAddr: 0x10000CDEC, symSize: 0xA0 }
  - { offsetInCU: 0x1B91E, offset: 0x1B91E, size: 0x8, addend: 0x0, symName: __ZNSt3__16vectorIbNS_9allocatorIbEEE18__construct_at_endINS_14__bit_iteratorIS3_Lb0ELm0EEES6_EEvT_T0_m, symObjAddr: 0xC1A0, symBinAddr: 0x10000CE8C, symSize: 0x12C }
  - { offsetInCU: 0x1B9A0, offset: 0x1B9A0, size: 0x8, addend: 0x0, symName: __ZNSt3__116allocator_traitsINS_9allocatorImEEE8max_sizeB8ue170006IS2_vEEmRKS2_, symObjAddr: 0xC2CC, symBinAddr: 0x10000CFB8, symSize: 0x24 }
  - { offsetInCU: 0x1B9CE, offset: 0x1B9CE, size: 0x8, addend: 0x0, symName: __ZNSt3__114numeric_limitsImE3maxB8ue170006Ev, symObjAddr: 0xC2F0, symBinAddr: 0x10000CFDC, symSize: 0x14 }
  - { offsetInCU: 0x1B9E2, offset: 0x1B9E2, size: 0x8, addend: 0x0, symName: __ZNKSt3__19allocatorImE8max_sizeB8ue170006Ev, symObjAddr: 0xC304, symBinAddr: 0x10000CFF0, symSize: 0x14 }
  - { offsetInCU: 0x1BA08, offset: 0x1BA08, size: 0x8, addend: 0x0, symName: __ZNSt3__123__libcpp_numeric_limitsImLb1EE3maxB8ue170006Ev, symObjAddr: 0xC318, symBinAddr: 0x10000D004, symSize: 0x8 }
  - { offsetInCU: 0x1BA1C, offset: 0x1BA1C, size: 0x8, addend: 0x0, symName: __ZNSt3__16vectorIbNS_9allocatorIbEEE26__external_cap_to_internalB8ue170006Em, symObjAddr: 0xC360, symBinAddr: 0x10000D04C, symSize: 0x24 }
  - { offsetInCU: 0x1BA40, offset: 0x1BA40, size: 0x8, addend: 0x0, symName: __ZNSt3__19allocatorImE8allocateB8ue170006Em, symObjAddr: 0xC384, symBinAddr: 0x10000D070, symSize: 0x58 }
  - { offsetInCU: 0x1BA97, offset: 0x1BA97, size: 0x8, addend: 0x0, symName: __ZNKSt3__111__copy_loopINS_17_ClassicAlgPolicyEEclB8ue170006INS_14__bit_iteratorINS_6vectorIbNS_9allocatorIbEEEELb0ELm0EEES9_S9_EENS_4pairIT_T1_EESB_T0_SC_, symObjAddr: 0xC6D4, symBinAddr: 0x10000D3C0, symSize: 0xB8 }
  - { offsetInCU: 0x1BB05, offset: 0x1BB05, size: 0x8, addend: 0x0, symName: __ZNKSt3__114__bit_iteratorINS_6vectorIbNS_9allocatorIbEEEELb0ELm0EEdeB8ue170006Ev, symObjAddr: 0xC924, symBinAddr: 0x10000D610, symSize: 0x44 }
  - { offsetInCU: 0x1BB2B, offset: 0x1BB2B, size: 0x8, addend: 0x0, symName: __ZNSt3__115__bit_referenceINS_6vectorIbNS_9allocatorIbEEEELb1EEaSB8ue170006ERKS5_, symObjAddr: 0xC968, symBinAddr: 0x10000D654, symSize: 0x40 }
  - { offsetInCU: 0x1BB5F, offset: 0x1BB5F, size: 0x8, addend: 0x0, symName: __ZNSt3__114__bit_iteratorINS_6vectorIbNS_9allocatorIbEEEELb0ELm0EEppB8ue170006Ev, symObjAddr: 0xC9A8, symBinAddr: 0x10000D694, symSize: 0x5C }
  - { offsetInCU: 0x1BB85, offset: 0x1BB85, size: 0x8, addend: 0x0, symName: __ZNSt3__118__unwrap_iter_implINS_14__bit_iteratorINS_6vectorIbNS_9allocatorIbEEEELb0ELm0EEELb0EE8__unwrapB8ue170006ES6_, symObjAddr: 0xCA68, symBinAddr: 0x10000D754, symSize: 0x38 }
  - { offsetInCU: 0x1BBAE, offset: 0x1BBAE, size: 0x8, addend: 0x0, symName: __ZNSt3__14pairINS_14__bit_iteratorINS_6vectorIbNS_9allocatorIbEEEELb0ELm0EEES6_EC1B8ue170006IS6_S6_LPv0EEEOT_OT0_, symObjAddr: 0xCAA0, symBinAddr: 0x10000D78C, symSize: 0x3C }
  - { offsetInCU: 0x1BC0C, offset: 0x1BC0C, size: 0x8, addend: 0x0, symName: __ZNSt3__14pairINS_14__bit_iteratorINS_6vectorIbNS_9allocatorIbEEEELb0ELm0EEES6_EC2B8ue170006IS6_S6_LPv0EEEOT_OT0_, symObjAddr: 0xCADC, symBinAddr: 0x10000D7C8, symSize: 0x48 }
  - { offsetInCU: 0x1BC6A, offset: 0x1BC6A, size: 0x8, addend: 0x0, symName: __ZNSt3__118__unwrap_iter_implINS_14__bit_iteratorINS_6vectorIbNS_9allocatorIbEEEELb0ELm0EEELb0EE8__rewrapB8ue170006ES6_S6_, symObjAddr: 0xCB24, symBinAddr: 0x10000D810, symSize: 0x3C }
  - { offsetInCU: 0x1BC99, offset: 0x1BC99, size: 0x8, addend: 0x0, symName: __ZNSt3__16vectorIbNS_9allocatorIbEEE10__align_itB8ue170006Em, symObjAddr: 0xCB60, symBinAddr: 0x10000D84C, symSize: 0x1C }
  - { offsetInCU: 0x1BCC7, offset: 0x1BCC7, size: 0x8, addend: 0x0, symName: __ZNKSt3__16__lessIvvEclB8ue170006IllEEbRKT_RKT0_, symObjAddr: 0xD438, symBinAddr: 0x10000E124, symSize: 0x34 }
  - { offsetInCU: 0x1BD34, offset: 0x1BD34, size: 0x8, addend: 0x0, symName: __ZNKSt3__114__copy_trivialclB8ue170006IKmmLi0EEENS_4pairIPT_PT0_EES5_S5_S7_, symObjAddr: 0xD648, symBinAddr: 0x10000E334, symSize: 0x48 }
  - { offsetInCU: 0x1BDBA, offset: 0x1BDBA, size: 0x8, addend: 0x0, symName: __ZNSt3__14pairIPKmS2_EC1B8ue170006IS2_S2_LPv0EEEOT_OT0_, symObjAddr: 0xD7B0, symBinAddr: 0x10000E49C, symSize: 0x3C }
  - { offsetInCU: 0x1BE18, offset: 0x1BE18, size: 0x8, addend: 0x0, symName: __ZNSt3__14pairIPKmS2_EC2B8ue170006IS2_S2_LPv0EEEOT_OT0_, symObjAddr: 0xD7EC, symBinAddr: 0x10000E4D8, symSize: 0x34 }
  - { offsetInCU: 0x1BE76, offset: 0x1BE76, size: 0x8, addend: 0x0, symName: __ZNSt3__118__unwrap_iter_implIPKmLb1EE8__unwrapB8ue170006ES2_, symObjAddr: 0xD820, symBinAddr: 0x10000E50C, symSize: 0x24 }
  - { offsetInCU: 0x1BEA3, offset: 0x1BEA3, size: 0x8, addend: 0x0, symName: __ZNSt3__14pairIPKmPmEC1B8ue170006IRS2_S3_LPv0EEEOT_OT0_, symObjAddr: 0xD960, symBinAddr: 0x10000E64C, symSize: 0x3C }
  - { offsetInCU: 0x1BF01, offset: 0x1BF01, size: 0x8, addend: 0x0, symName: __ZNSt3__14pairIPKmPmEC2B8ue170006IRS2_S3_LPv0EEEOT_OT0_, symObjAddr: 0xD99C, symBinAddr: 0x10000E688, symSize: 0x34 }
  - { offsetInCU: 0x1BF5F, offset: 0x1BF5F, size: 0x8, addend: 0x0, symName: __ZNSt3__118__unwrap_iter_implIPmLb1EE8__unwrapB8ue170006ES1_, symObjAddr: 0xD9D0, symBinAddr: 0x10000E6BC, symSize: 0x24 }
  - { offsetInCU: 0x1BF82, offset: 0x1BF82, size: 0x8, addend: 0x0, symName: __ZNSt3__14pairIPKmPmEC1B8ue170006IS2_S3_LPv0EEEOT_OT0_, symObjAddr: 0xD9F4, symBinAddr: 0x10000E6E0, symSize: 0x3C }
  - { offsetInCU: 0x1BFE0, offset: 0x1BFE0, size: 0x8, addend: 0x0, symName: __ZNSt3__14pairIPKmPmEC2B8ue170006IS2_S3_LPv0EEEOT_OT0_, symObjAddr: 0xDA30, symBinAddr: 0x10000E71C, symSize: 0x34 }
  - { offsetInCU: 0x1C03E, offset: 0x1C03E, size: 0x8, addend: 0x0, symName: __ZNSt3__118__unwrap_iter_implIPKmLb1EE8__rewrapB8ue170006ES2_S2_, symObjAddr: 0xDAA0, symBinAddr: 0x10000E78C, symSize: 0x50 }
  - { offsetInCU: 0x1C06F, offset: 0x1C06F, size: 0x8, addend: 0x0, symName: __ZNSt3__118__unwrap_iter_implIPmLb1EE8__rewrapB8ue170006ES1_S1_, symObjAddr: 0xDAF0, symBinAddr: 0x10000E7DC, symSize: 0x50 }
  - { offsetInCU: 0x1C0A0, offset: 0x1C0A0, size: 0x8, addend: 0x0, symName: __ZNKSt3__16vectorIbNS_9allocatorIbEEE11__make_iterB8ue170006Em, symObjAddr: 0xDB40, symBinAddr: 0x10000E82C, symSize: 0x5C }
  - { offsetInCU: 0x1C0D5, offset: 0x1C0D5, size: 0x8, addend: 0x0, symName: __ZNSt3__114__bit_iteratorINS_6vectorIbNS_9allocatorIbEEEELb1ELm0EEC1B8ue170006EPKmj, symObjAddr: 0xDB9C, symBinAddr: 0x10000E888, symSize: 0x3C }
  - { offsetInCU: 0x1C11D, offset: 0x1C11D, size: 0x8, addend: 0x0, symName: __ZNSt3__114__bit_iteratorINS_6vectorIbNS_9allocatorIbEEEELb1ELm0EEC2B8ue170006EPKmj, symObjAddr: 0xDBD8, symBinAddr: 0x10000E8C4, symSize: 0x2C }
  - { offsetInCU: 0x1C165, offset: 0x1C165, size: 0x8, addend: 0x0, symName: __ZNSt3__114__bit_iteratorINS_6vectorIbNS_9allocatorIbEEEELb0ELm0EEC2B8ue170006ERKS5_, symObjAddr: 0xE0B0, symBinAddr: 0x10000ED9C, symSize: 0x30 }
  - { offsetInCU: 0x1C19E, offset: 0x1C19E, size: 0x8, addend: 0x0, symName: __ZNKSt3__19basic_iosIcNS_11char_traitsIcEEE5widenB8ue170006Ec, symObjAddr: 0xE0E0, symBinAddr: 0x10000EDCC, symSize: 0x84 }
  - { offsetInCU: 0x1C207, offset: 0x1C207, size: 0x8, addend: 0x0, symName: __ZNKSt3__15ctypeIcE5widenB8ue170006Ec, symObjAddr: 0xE190, symBinAddr: 0x10000EE7C, symSize: 0x38 }
...
